	.text
	.attribute	4, 16
	.attribute	5, "rv64i2p0_m2p0_a2p0_f2p0_d2p0_c2p0"
	.file	"tokio.1bb34605-cgu.0"
	.section	.sdata,"aw",@progbits
	.p2align	3
.LCPI0_0:
	.quad	-4493808902380553279
	.section	".text._ZN36_$LT$T$u20$as$u20$core..any..Any$GT$7type_id17h84cf27c69f4a80c9E","ax",@progbits
	.p2align	1
	.type	_ZN36_$LT$T$u20$as$u20$core..any..Any$GT$7type_id17h84cf27c69f4a80c9E,@function
_ZN36_$LT$T$u20$as$u20$core..any..Any$GT$7type_id17h84cf27c69f4a80c9E:
	.cfi_startproc
.Lpcrel_hi0:
	auipc	a0, %pcrel_hi(.LCPI0_0)
	ld	a0, %pcrel_lo(.Lpcrel_hi0)(a0)
	ret
.Lfunc_end0:
	.size	_ZN36_$LT$T$u20$as$u20$core..any..Any$GT$7type_id17h84cf27c69f4a80c9E, .Lfunc_end0-_ZN36_$LT$T$u20$as$u20$core..any..Any$GT$7type_id17h84cf27c69f4a80c9E
	.cfi_endproc

	.section	.text._ZN3std10sys_common9backtrace26__rust_end_short_backtrace17h09bfdb99a25e7095E,"ax",@progbits
	.p2align	1
	.type	_ZN3std10sys_common9backtrace26__rust_end_short_backtrace17h09bfdb99a25e7095E,@function
_ZN3std10sys_common9backtrace26__rust_end_short_backtrace17h09bfdb99a25e7095E:
	.cfi_startproc
	addi	sp, sp, -16
	.cfi_def_cfa_offset 16
	sd	ra, 8(sp)
	.cfi_offset ra, -8
	call	_ZN3std9panicking11begin_panic28_$u7b$$u7b$closure$u7d$$u7d$17h1edf837d17bc7f9eE
	unimp	
.Lfunc_end1:
	.size	_ZN3std10sys_common9backtrace26__rust_end_short_backtrace17h09bfdb99a25e7095E, .Lfunc_end1-_ZN3std10sys_common9backtrace26__rust_end_short_backtrace17h09bfdb99a25e7095E
	.cfi_endproc

	.section	.sdata,"aw",@progbits
	.p2align	3
.LCPI2_0:
	.quad	-9187201950435737472
.LCPI2_1:
	.quad	72340172838076673
.LCPI2_2:
	.quad	-72340172838076673
.LCPI2_3:
	.quad	151050438420815295
.LCPI2_5:
	.quad	6148914691236517205
.LCPI2_6:
	.quad	3689348814741910323
.LCPI2_7:
	.quad	1085102592571150095
	.section	.rodata,"a",@progbits
.LCPI2_4:
	.ascii	"\000\001\002\007\003\r\b\023\004\031\016\034\t\"\024(\005\021\032&\017.\0350\n\037#6\0252)9?\006\f\022\030\033!'\020%-/\036518>\013\027 $,47=\026+3<*;:"
	.section	.text._ZN3std10sys_common9backtrace28__rust_begin_short_backtrace17h58c07a4292c6ae6cE,"ax",@progbits
	.p2align	1
	.type	_ZN3std10sys_common9backtrace28__rust_begin_short_backtrace17h58c07a4292c6ae6cE,@function
_ZN3std10sys_common9backtrace28__rust_begin_short_backtrace17h58c07a4292c6ae6cE:
.Lfunc_begin0:
	.cfi_startproc
	.cfi_personality 155, DW.ref.rust_eh_personality
	.cfi_lsda 27, .Lexception0
	addi	sp, sp, -240
	.cfi_def_cfa_offset 240
	sd	ra, 232(sp)
	sd	s0, 224(sp)
	sd	s1, 216(sp)
	sd	s2, 208(sp)
	sd	s3, 200(sp)
	sd	s4, 192(sp)
	sd	s5, 184(sp)
	sd	s6, 176(sp)
	sd	s7, 168(sp)
	sd	s8, 160(sp)
	sd	s9, 152(sp)
	sd	s10, 144(sp)
	sd	s11, 136(sp)
	.cfi_offset ra, -8
	.cfi_offset s0, -16
	.cfi_offset s1, -24
	.cfi_offset s2, -32
	.cfi_offset s3, -40
	.cfi_offset s4, -48
	.cfi_offset s5, -56
	.cfi_offset s6, -64
	.cfi_offset s7, -72
	.cfi_offset s8, -80
	.cfi_offset s9, -88
	.cfi_offset s10, -96
	.cfi_offset s11, -104
	mv	s2, a0
	ld	s1, 8(a0)
	ld	s3, 0(a0)
	li	a0, 1
	amoadd.d	a1, a0, (s1)
	beqz	s3, .LBB2_2
	bgez	a1, .LBB2_4
	j	.LBB2_124
.LBB2_2:
	bltz	a1, .LBB2_124
	li	a0, 0
.LBB2_4:
	li	s4, 1
.Ltmp0:
	mv	a1, s1
	sd	s2, 16(sp)
	call	_ZN5tokio7runtime7context9try_enter17h6f69fab6c6f4d1adE
.Ltmp1:
	li	a2, 3
	beq	a0, a2, .LBB2_125
	sd	a0, 24(sp)
	sd	a1, 32(sp)
	li	a0, 128
	beqz	s3, .LBB2_8
	li	a0, 240
.LBB2_8:
	add	a0, a0, s1
	ld	a1, 16(s2)
	ld	s0, 24(a0)
	sd	a1, 88(sp)
	ld	a0, 16(s0)
	beqz	a0, .LBB2_10
	ld	a1, 24(s0)
	ld	a2, 16(a1)
	addi	a2, a2, -1
	andi	a2, a2, -16
	ld	a1, 40(a1)
	add	a0, a0, a2
	addi	a0, a0, 16
	li	s4, 1
.Ltmp2:
	jalr	a1
.Ltmp3:
.LBB2_10:
	addi	s5, s0, 96
	li	s4, 1
.LBB2_169:
	lr.w.aq	a0, (s5)
	bnez	a0, .LBB2_171
	sc.w	a1, s4, (s5)
	bnez	a1, .LBB2_169
.LBB2_171:
	beqz	a0, .LBB2_12
.Ltmp4:
	mv	a0, s5
	call	_ZN3std3sys4unix5locks11futex_mutex5Mutex14lock_contended17hc6ede0d6cc8b1037E@plt
.Ltmp5:
.LBB2_12:
.Lpcrel_hi5:
	auipc	a0, %got_pcrel_hi(_ZN3std9panicking11panic_count18GLOBAL_PANIC_COUNT17h813e628f0cb26d91E)
	ld	s8, %pcrel_lo(.Lpcrel_hi5)(a0)
	ld	a0, 0(s8)
	slli	a0, a0, 1
	sd	s1, 8(sp)
	sd	s3, 0(sp)
	beqz	a0, .LBB2_15
.Ltmp6:
	call	_ZN3std9panicking11panic_count17is_zero_slow_path17he417053412855f77E@plt
.Ltmp7:
	xori	s7, a0, 1
	j	.LBB2_16
.LBB2_15:
	li	s7, 0
.LBB2_16:
	li	a0, -1
	srli	s9, a0, 1
	lb	a0, 100(s0)
	sd	zero, 104(sp)
	addi	s4, s0, 256
	li	s10, 1
	li	s11, 2
	li	s2, 64
	neg	s6, s2
	li	s3, 63
.LBB2_17:
	ld	a0, 128(s0)
	beqz	a0, .LBB2_30
	ld	a1, 120(s0)
	ld	a2, 104(s0)
	addi	a3, a1, 1
	sltu	a4, a3, a2
	addi	a4, a4, -1
	and	a2, a2, a4
	sub	a3, a3, a2
	sd	a3, 120(s0)
	ld	a2, 112(s0)
	addi	a0, a0, -1
	sd	a0, 128(s0)
	slli	a1, a1, 4
	add	a1, a1, a2
	ld	s1, 0(a1)
	andi	a0, s7, 255
	beqz	a0, .LBB2_39
.LBB2_19:
	amoswap.w.rl	a0, zero, (s5)
	bne	a0, s11, .LBB2_21
.Ltmp10:
	mv	a0, s5
	call	_ZN3std3sys4unix5locks11futex_mutex5Mutex4wake17h5ccb808587248eb1E@plt
.Ltmp11:
.LBB2_21:
	ld	a0, 16(s1)
	ld	a1, 8(a0)
.Ltmp15:
	mv	a0, s1
	jalr	a1
.Ltmp16:
	amoadd.d.aqrl	a0, s6, (s1)
	bgeu	s3, a0, .LBB2_123
	andi	a0, a0, -64
	bne	a0, s2, .LBB2_25
	ld	a0, 16(s1)
	ld	a1, 16(a0)
.Ltmp21:
	mv	a0, s1
	jalr	a1
.Ltmp22:
.LBB2_25:
.LBB2_172:
	lr.w.aq	a0, (s5)
	bnez	a0, .LBB2_174
	sc.w	a1, s10, (s5)
	bnez	a1, .LBB2_172
.LBB2_174:
	beqz	a0, .LBB2_27
.Ltmp23:
	mv	a0, s5
	call	_ZN3std3sys4unix5locks11futex_mutex5Mutex14lock_contended17hc6ede0d6cc8b1037E@plt
.Ltmp24:
.LBB2_27:
	ld	a0, 0(s8)
	and	a0, a0, s9
	beqz	a0, .LBB2_43
.Ltmp25:
	call	_ZN3std9panicking11panic_count17is_zero_slow_path17he417053412855f77E@plt
.Ltmp26:
	xori	s7, a0, 1
	lb	a0, 100(s0)
	j	.LBB2_17
.LBB2_30:
	lw	a0, 232(s0)
	lbu	a1, 240(s0)
	addiw	a0, a0, 1
	sw	a0, 232(s0)
	bnez	a1, .LBB2_45
	mv	s1, s7
.LBB2_32:
	ld	a2, 64(s0)
	lw	a3, 72(s0)
	andi	a0, s1, 255
	snez	s7, a0
.Ltmp31:
	mv	a0, s4
	mv	a1, s5
	call	_ZN3std3sys4unix5locks13futex_condvar7Condvar12wait_timeout17hc684e6ff2b72e021E@plt
.Ltmp32:
	lb	a1, 100(s0)
	xori	a0, a0, 1
	bnez	a1, .LBB2_120
	sb	a0, 129(sp)
	lw	a0, 236(s0)
	bnez	a0, .LBB2_44
	lbu	a0, 240(s0)
	bnez	a0, .LBB2_45
.Ltmp43:
	addi	a0, sp, 129
	call	_ZN3std4sync7condvar17WaitTimeoutResult9timed_out17hcfa1265f3f60fca3E@plt
.Ltmp44:
	bnez	a0, .LBB2_93
	lbu	a0, 240(s0)
	mv	s1, s7
	beqz	a0, .LBB2_32
	j	.LBB2_45
.LBB2_39:
	ld	a0, 0(s8)
	and	a0, a0, s9
	beqz	a0, .LBB2_19
.Ltmp8:
	call	_ZN3std9panicking11panic_count17is_zero_slow_path17he417053412855f77E@plt
.Ltmp9:
	bnez	a0, .LBB2_19
	sb	s10, 100(s0)
	j	.LBB2_19
.LBB2_43:
	li	s7, 0
	lb	a0, 100(s0)
	j	.LBB2_17
.LBB2_44:
	lbu	a1, 240(s0)
	addiw	a0, a0, -1
	sw	a0, 236(s0)
	beqz	a1, .LBB2_17
.LBB2_45:
	ld	a0, 128(s0)
	beqz	a0, .LBB2_68
	li	s2, 1
	li	s3, 2
	li	s6, 64
	neg	s10, s6
	j	.LBB2_48
.LBB2_47:
	li	s7, 0
	lb	a0, 100(s0)
	ld	a0, 128(s0)
	beqz	a0, .LBB2_68
.LBB2_48:
	ld	a1, 120(s0)
	ld	a2, 104(s0)
	addi	a3, a1, 1
	sltu	a4, a3, a2
	addi	a4, a4, -1
	and	a2, a2, a4
	sub	a3, a3, a2
	sd	a3, 120(s0)
	ld	a2, 112(s0)
	addi	a0, a0, -1
	sd	a0, 128(s0)
	slli	a1, a1, 4
	add	a1, a1, a2
	ld	s1, 0(a1)
	lbu	s11, 8(a1)
	andi	a0, s7, 255
	beqz	a0, .LBB2_54
.LBB2_49:
	amoswap.w.rl	a0, zero, (s5)
	bne	a0, s3, .LBB2_51
.Ltmp48:
	mv	a0, s5
	call	_ZN3std3sys4unix5locks11futex_mutex5Mutex4wake17h5ccb808587248eb1E@plt
.Ltmp49:
.LBB2_51:
	beqz	s11, .LBB2_58
	amoadd.d.aqrl	a0, s10, (s1)
	bltu	a0, s6, .LBB2_121
	ld	a0, 16(s1)
	addi	a0, a0, 64
	j	.LBB2_62
.LBB2_54:
	ld	a0, 0(s8)
	and	a0, a0, s9
	beqz	a0, .LBB2_49
.Ltmp46:
	call	_ZN3std9panicking11panic_count17is_zero_slow_path17he417053412855f77E@plt
.Ltmp47:
	bnez	a0, .LBB2_49
	sb	s2, 100(s0)
	j	.LBB2_49
.LBB2_58:
	ld	a0, 16(s1)
	ld	a1, 8(a0)
.Ltmp59:
	mv	a0, s1
	jalr	a1
.Ltmp60:
	amoadd.d.aqrl	a0, s10, (s1)
	li	a1, 63
	bgeu	a1, a0, .LBB2_122
	andi	a0, a0, -64
	bne	a0, s6, .LBB2_63
	ld	a0, 16(s1)
	addi	a0, a0, 16
.LBB2_62:
	ld	a1, 0(a0)
.Ltmp65:
	mv	a0, s1
	jalr	a1
.Ltmp66:
.LBB2_63:
.LBB2_175:
	lr.w.aq	a0, (s5)
	bnez	a0, .LBB2_177
	sc.w	a1, s2, (s5)
	bnez	a1, .LBB2_175
.LBB2_177:
	beqz	a0, .LBB2_65
.Ltmp67:
	mv	a0, s5
	call	_ZN3std3sys4unix5locks11futex_mutex5Mutex14lock_contended17hc6ede0d6cc8b1037E@plt
.Ltmp68:
.LBB2_65:
	ld	a0, 0(s8)
	and	a0, a0, s9
	beqz	a0, .LBB2_47
.Ltmp69:
	call	_ZN3std9panicking11panic_count17is_zero_slow_path17he417053412855f77E@plt
.Ltmp70:
	xori	s7, a0, 1
	lb	a0, 100(s0)
	ld	a0, 128(s0)
	bnez	a0, .LBB2_48
.LBB2_68:
	lw	a0, 232(s0)
	addiw	a0, a0, 1
	sw	a0, 232(s0)
	ld	a1, 184(s0)
	addi	a1, a1, -1
	sd	a1, 184(s0)
	beqz	a0, .LBB2_119
.LBB2_69:
	lbu	a2, 240(s0)
	snez	a2, a2
	seqz	a1, a1
	and	a1, a1, a2
	addiw	a0, a0, -1
	sw	a0, 232(s0)
	beqz	a1, .LBB2_71
	li	s2, 1
.Ltmp78:
	mv	s1, s7
	li	s6, 1
	mv	a0, s4
	call	_ZN3std4sync7condvar7Condvar10notify_one17h3de343ec9c8b9a98E@plt
.Ltmp79:
.LBB2_71:
	andi	a0, s7, 255
	beqz	a0, .LBB2_89
.LBB2_72:
	amoswap.w.rl	a0, zero, (s5)
	li	a1, 2
	bne	a0, a1, .LBB2_74
	li	s6, 1
.Ltmp82:
	li	s2, 0
	mv	s1, s7
	mv	a0, s5
	call	_ZN3std3sys4unix5locks11futex_mutex5Mutex4wake17h5ccb808587248eb1E@plt
.Ltmp83:
.LBB2_74:
	ld	a0, 32(s0)
	beqz	a0, .LBB2_76
	ld	a1, 40(s0)
	ld	a2, 16(a1)
	addi	a2, a2, -1
	andi	a2, a2, -16
	ld	a1, 40(a1)
	add	a0, a0, a2
	addi	a0, a0, 16
	li	s6, 1
.Ltmp84:
	li	s2, 0
	mv	s1, s7
	jalr	a1
.Ltmp85:
.LBB2_76:
	ld	a0, 104(sp)
	beqz	a0, .LBB2_82
	ld	a0, 112(sp)
	ld	a1, 104(sp)
	ld	a2, 96(sp)
	sd	a0, 56(sp)
	sd	a1, 48(sp)
	sd	a2, 40(sp)
.Ltmp86:
	addi	a0, sp, 40
	li	s2, 0
	li	s6, 0
	mv	s1, s7
	call	_ZN3std6thread19JoinHandle$LT$T$GT$4join17ha20490964f820ddcE
.Ltmp87:
	mv	s0, a0
	beqz	a0, .LBB2_82
	mv	s3, a1
	ld	a1, 0(a1)
.Ltmp88:
	mv	a0, s0
	jalr	a1
.Ltmp89:
	ld	a1, 8(s3)
	beqz	a1, .LBB2_82
	ld	a2, 16(s3)
	mv	a0, s0
	call	__rust_dealloc@plt
.LBB2_82:
	ld	s2, 16(sp)
	ld	a0, 24(s2)
	li	a1, 1
	neg	a2, a1
	amoadd.d.rl	a2, a2, (a0)
	ld	s0, 8(sp)
	ld	s1, 0(sp)
	bne	a2, a1, .LBB2_84
	fence	r, rw
.Ltmp91:
	li	s4, 0
	call	_ZN5alloc4sync12Arc$LT$T$GT$9drop_slow17h7466aff87d2fdac6E
.Ltmp92:
.LBB2_84:
.Ltmp94:
	addi	a0, sp, 24
	call	_ZN77_$LT$tokio..runtime..context..EnterGuard$u20$as$u20$core..ops..drop..Drop$GT$4drop17hc04ba6274e17931eE@plt
.Ltmp95:
	ld	a1, 24(sp)
	li	a0, 2
	beq	a1, a0, .LBB2_109
	ld	a0, 32(sp)
	li	a2, 1
	neg	a3, a2
	amoadd.d.rl	a3, a3, (a0)
	beqz	a1, .LBB2_107
	bne	a3, a2, .LBB2_109
	fence	r, rw
.Ltmp100:
	li	s4, 0
	call	_ZN5alloc4sync12Arc$LT$T$GT$9drop_slow17hb344c95be8daa5bfE
.Ltmp101:
	j	.LBB2_109
.LBB2_89:
	ld	a0, 0(s8)
	and	a0, a0, s9
	beqz	a0, .LBB2_72
	li	s6, 1
.Ltmp80:
	li	s1, 0
	li	s2, 0
	call	_ZN3std9panicking11panic_count17is_zero_slow_path17he417053412855f77E@plt
.Ltmp81:
	bnez	a0, .LBB2_72
	li	a0, 1
	sb	a0, 100(s0)
	j	.LBB2_72
.LBB2_93:
.Lpcrel_hi9:
	auipc	a0, %pcrel_hi(.LCPI2_0)
	ld	s2, %pcrel_lo(.Lpcrel_hi9)(a0)
	ld	a0, 168(s0)
	ld	a1, 176(s0)
	addi	a2, sp, 88
	call	_ZN4core4hash11BuildHasher8hash_one17hbcede49bf11170d5E
	li	t2, 0
	ld	s6, 88(sp)
.Lpcrel_hi10:
	auipc	a1, %pcrel_hi(.LCPI2_1)
	ld	a6, %pcrel_lo(.Lpcrel_hi10)(a1)
	ld	s10, 136(s0)
	ld	t1, 160(s0)
	srli	a1, a0, 57
	mul	a7, a1, a6
.Lpcrel_hi11:
	auipc	a1, %pcrel_hi(.LCPI2_2)
	ld	t0, %pcrel_lo(.Lpcrel_hi11)(a1)
.Lpcrel_hi12:
	auipc	a1, %pcrel_hi(.LCPI2_3)
	ld	t5, %pcrel_lo(.Lpcrel_hi12)(a1)
	addi	s1, t1, -32
.Lpcrel_hi13:
	auipc	a2, %pcrel_hi(.LCPI2_4)
	addi	t4, a2, %pcrel_lo(.Lpcrel_hi13)
.LBB2_94:
	and	a0, a0, s10
	add	a2, t1, a0
	lbu	t6, 1(a2)
	lbu	t3, 0(a2)
	lbu	s3, 2(a2)
	lbu	a3, 3(a2)
	slli	t6, t6, 8
	or	a4, t6, t3
	slli	s3, s3, 16
	slli	a3, a3, 24
	or	a3, a3, s3
	or	t3, a3, a4
	lbu	a4, 5(a2)
	lbu	t6, 4(a2)
	lbu	a3, 6(a2)
	lbu	a2, 7(a2)
	slli	a4, a4, 8
	or	a4, a4, t6
	slli	a3, a3, 16
	slli	a2, a2, 24
	or	a2, a2, a3
	or	a2, a2, a4
	slli	a2, a2, 32
	or	t3, a2, t3
	xor	a2, t3, a7
	not	a3, a2
	add	a2, a2, t0
	and	a3, a3, s2
	and	a5, a3, a2
.LBB2_95:
	beqz	a5, .LBB2_97
	neg	a3, a5
	and	a3, a3, a5
	mul	a3, a3, t5
	srli	a3, a3, 58
	add	a3, a3, t4
	lbu	a3, 0(a3)
	srli	a3, a3, 3
	add	a3, a3, a0
	and	a3, a3, s10
	slli	a4, a3, 5
	sub	a1, s1, a4
	ld	a1, 0(a1)
	addi	a2, a5, -1
	and	a5, a5, a2
	bne	a1, s6, .LBB2_95
	j	.LBB2_99
.LBB2_97:
	slli	a2, t3, 1
	and	a3, t3, s2
	and	a2, a2, a3
	bnez	a2, .LBB2_115
	addi	t2, t2, 8
	add	a0, a0, t2
	j	.LBB2_94
.LBB2_99:
	srai	a4, a4, 5
	addi	a0, a4, -8
	and	a0, a0, s10
	add	a0, a0, t1
	lbu	a1, 1(a0)
	lbu	a2, 0(a0)
	lbu	a5, 2(a0)
	lbu	s1, 3(a0)
	slli	a1, a1, 8
	or	a1, a1, a2
	slli	a5, a5, 16
	slli	s1, s1, 24
	or	a5, a5, s1
	or	a7, a5, a1
	lbu	a2, 5(a0)
	lbu	a5, 4(a0)
	lbu	s1, 6(a0)
	lbu	a1, 7(a0)
	slli	a2, a2, 8
	or	a2, a2, a5
	slli	s1, s1, 16
	slli	a1, a1, 24
	or	a1, a1, s1
	or	a1, a1, a2
	slli	a1, a1, 32
	or	a1, a1, a7
	slli	a2, a1, 1
	and	s1, a1, s2
	and	t0, s1, a2
	add	a5, t1, a4
	lbu	a1, 1(a5)
	lbu	a2, 0(a5)
	lbu	a4, 2(a5)
	lbu	s1, 3(a5)
	slli	a1, a1, 8
	or	a1, a1, a2
	slli	a4, a4, 16
	slli	s1, s1, 24
	lbu	a2, 5(a5)
	or	a4, a4, s1
	or	t2, a4, a1
	lbu	a4, 4(a5)
	slli	a2, a2, 8
	lbu	s1, 6(a5)
	lbu	a1, 7(a5)
	or	a2, a2, a4
	neg	a7, a3
	slli	s1, s1, 16
	slli	a1, a1, 24
	or	a1, a1, s1
	or	a1, a1, a2
	slli	a1, a1, 32
	or	a1, a1, t2
	slli	a2, a1, 1
	and	a1, a1, s2
	and	a1, a1, a2
	li	t2, 64
	li	a2, 64
	beqz	t0, .LBB2_101
	srli	a2, t0, 1
	or	a2, t0, a2
	srli	a3, a2, 2
	or	a2, a2, a3
	srli	a3, a2, 4
	or	a2, a2, a3
	srli	a3, a2, 8
	or	a2, a2, a3
	srli	a3, a2, 16
	or	a2, a2, a3
	srli	a3, a2, 32
	or	a2, a2, a3
	not	a4, a2
.Lpcrel_hi14:
	auipc	a3, %pcrel_hi(.LCPI2_5)
	ld	a3, %pcrel_lo(.Lpcrel_hi14)(a3)
.Lpcrel_hi15:
	auipc	s1, %pcrel_hi(.LCPI2_6)
	ld	s1, %pcrel_lo(.Lpcrel_hi15)(s1)
	srli	a2, a4, 1
	and	a2, a2, a3
	sub	a4, a4, a2
	and	a2, a4, s1
	srli	a4, a4, 2
	and	a4, a4, s1
.Lpcrel_hi16:
	auipc	a3, %pcrel_hi(.LCPI2_7)
	ld	a3, %pcrel_lo(.Lpcrel_hi16)(a3)
	add	a2, a2, a4
	srli	a4, a2, 4
	add	a2, a2, a4
	and	a2, a2, a3
	mul	a2, a2, a6
	srli	a2, a2, 56
.LBB2_101:
	slli	a7, a7, 5
	srli	a2, a2, 3
	beqz	a1, .LBB2_103
	neg	a3, a1
	and	a1, a1, a3
	mul	a1, a1, t5
	srli	a1, a1, 58
	add	a1, a1, t4
	lbu	t2, 0(a1)
.LBB2_103:
	add	t1, t1, a7
	srli	a1, t2, 3
	add	a2, a2, a1
	li	a3, 7
	li	a1, 128
	bltu	a3, a2, .LBB2_105
	ld	a1, 144(s0)
	addi	a1, a1, 1
	sd	a1, 144(s0)
	li	a1, 255
.LBB2_105:
	sb	a1, 0(a5)
	sb	a1, 8(a0)
	ld	a0, 152(s0)
	addi	a0, a0, -1
	sd	a0, 152(s0)
	ld	a2, -16(t1)
	beqz	a2, .LBB2_116
	ld	a3, -8(t1)
	ld	a4, -24(t1)
	j	.LBB2_117
.LBB2_107:
	bne	a3, a2, .LBB2_109
	fence	r, rw
.Ltmp102:
	li	s4, 0
	call	_ZN5alloc4sync12Arc$LT$T$GT$9drop_slow17h76e16e319e049719E
.Ltmp103:
.LBB2_109:
	li	a0, 1
	neg	a1, a0
	amoadd.d.rl	a1, a1, (s0)
	beqz	s1, .LBB2_112
	bne	a1, a0, .LBB2_114
	fence	r, rw
	mv	a0, s0
	call	_ZN5alloc4sync12Arc$LT$T$GT$9drop_slow17hb344c95be8daa5bfE
	j	.LBB2_114
.LBB2_112:
	bne	a1, a0, .LBB2_114
	fence	r, rw
	mv	a0, s0
	call	_ZN5alloc4sync12Arc$LT$T$GT$9drop_slow17h76e16e319e049719E
.LBB2_114:
	#APP
	#NO_APP
	ld	ra, 232(sp)
	ld	s0, 224(sp)
	ld	s1, 216(sp)
	ld	s2, 208(sp)
	ld	s3, 200(sp)
	ld	s4, 192(sp)
	ld	s5, 184(sp)
	ld	s6, 176(sp)
	ld	s7, 168(sp)
	ld	s8, 160(sp)
	ld	s9, 152(sp)
	ld	s10, 144(sp)
	ld	s11, 136(sp)
	addi	sp, sp, 240
	ret
.LBB2_115:
	li	a2, 0
.LBB2_116:
.LBB2_117:
	ld	a0, 216(s0)
	sd	a0, 56(sp)
	ld	a0, 208(s0)
	sd	a0, 48(sp)
	ld	a0, 200(s0)
	sd	a0, 40(sp)
	sd	a4, 200(s0)
	sd	a2, 208(s0)
	sd	a3, 216(s0)
.Ltmp75:
	addi	a0, sp, 96
	call	_ZN4core3ptr88drop_in_place$LT$core..option..Option$LT$std..thread..JoinHandle$LT$$LP$$RP$$GT$$GT$$GT$17h93f815104476dc91E
.Ltmp76:
	ld	a0, 56(sp)
	ld	a1, 48(sp)
	ld	a2, 40(sp)
	sd	a0, 112(sp)
	sd	a1, 104(sp)
	sd	a2, 96(sp)
	lw	a0, 232(s0)
	ld	a1, 184(s0)
	addi	a1, a1, -1
	sd	a1, 184(s0)
	bnez	a0, .LBB2_69
.LBB2_119:
	li	s2, 1
.Ltmp104:
.Lpcrel_hi17:
	auipc	a0, %pcrel_hi(.L__unnamed_1)
	addi	a0, a0, %pcrel_lo(.Lpcrel_hi17)
.Lpcrel_hi18:
	auipc	a1, %pcrel_hi(.L__unnamed_2)
	addi	a2, a1, %pcrel_lo(.Lpcrel_hi18)
	li	a1, 35
	mv	s1, s7
	li	s6, 1
	call	_ZN4core6option13expect_failed17hc3bf5d29c72a8836E@plt
.Ltmp105:
	j	.LBB2_126
.LBB2_120:
	sd	s5, 40(sp)
	lb	a1, 129(sp)
	lb	a2, 130(sp)
	lb	a3, 131(sp)
	sb	s7, 48(sp)
	sb	a1, 49(sp)
	sb	a2, 50(sp)
	sb	a3, 51(sp)
	lb	a1, 132(sp)
	lb	a2, 133(sp)
	lb	a3, 134(sp)
	lb	a4, 135(sp)
	sb	a1, 52(sp)
	sb	a2, 53(sp)
	sb	a3, 54(sp)
	sb	a4, 55(sp)
	lb	a1, 122(sp)
	lb	a2, 123(sp)
	lb	a3, 124(sp)
	sb	a0, 56(sp)
	sb	a1, 57(sp)
	sb	a2, 58(sp)
	sb	a3, 59(sp)
	lb	a0, 125(sp)
	lb	a1, 126(sp)
	lb	a2, 127(sp)
	lb	a3, 128(sp)
	sb	a0, 60(sp)
	sb	a1, 61(sp)
	sb	a2, 62(sp)
	sb	a3, 63(sp)
.Ltmp37:
.Lpcrel_hi6:
	auipc	a0, %pcrel_hi(.L__unnamed_3)
	addi	a0, a0, %pcrel_lo(.Lpcrel_hi6)
.Lpcrel_hi7:
	auipc	a1, %pcrel_hi(.L__unnamed_4)
	addi	a3, a1, %pcrel_lo(.Lpcrel_hi7)
.Lpcrel_hi8:
	auipc	a1, %pcrel_hi(.L__unnamed_5)
	addi	a4, a1, %pcrel_lo(.Lpcrel_hi8)
	li	a1, 43
	addi	a2, sp, 40
	call	_ZN4core6result13unwrap_failed17h55691412cd406e29E@plt
.Ltmp38:
	j	.LBB2_126
.LBB2_121:
.Ltmp53:
.Lpcrel_hi21:
	auipc	a0, %pcrel_hi(.L__unnamed_6)
	addi	a0, a0, %pcrel_lo(.Lpcrel_hi21)
.Lpcrel_hi22:
	auipc	a1, %pcrel_hi(.L__unnamed_7)
	addi	a2, a1, %pcrel_lo(.Lpcrel_hi22)
	li	a1, 39
	call	_ZN4core9panicking5panic17h4b48b745900393b1E@plt
.Ltmp54:
	j	.LBB2_126
.LBB2_122:
.Ltmp72:
.Lpcrel_hi19:
	auipc	a0, %pcrel_hi(.L__unnamed_6)
	addi	a0, a0, %pcrel_lo(.Lpcrel_hi19)
.Lpcrel_hi20:
	auipc	a1, %pcrel_hi(.L__unnamed_7)
	addi	a2, a1, %pcrel_lo(.Lpcrel_hi20)
	li	a1, 39
	call	_ZN4core9panicking5panic17h4b48b745900393b1E@plt
.Ltmp73:
	j	.LBB2_126
.LBB2_123:
.Ltmp28:
.Lpcrel_hi23:
	auipc	a0, %pcrel_hi(.L__unnamed_6)
	addi	a0, a0, %pcrel_lo(.Lpcrel_hi23)
.Lpcrel_hi24:
	auipc	a1, %pcrel_hi(.L__unnamed_7)
	addi	a2, a1, %pcrel_lo(.Lpcrel_hi24)
	li	a1, 39
	call	_ZN4core9panicking5panic17h4b48b745900393b1E@plt
.Ltmp29:
	j	.LBB2_126
.LBB2_124:
	unimp	
	unimp	
.LBB2_125:
.Lpcrel_hi1:
	auipc	a0, %pcrel_hi(.L__unnamed_8)
	addi	a0, a0, %pcrel_lo(.Lpcrel_hi1)
	sd	a0, 96(sp)
.Lpcrel_hi2:
	auipc	a0, %pcrel_hi(_ZN44_$LT$$RF$T$u20$as$u20$core..fmt..Display$GT$3fmt17h124d4597438c904bE)
	addi	a0, a0, %pcrel_lo(.Lpcrel_hi2)
	sd	a0, 104(sp)
.Lpcrel_hi3:
	auipc	a0, %pcrel_hi(.L__unnamed_9)
	addi	a0, a0, %pcrel_lo(.Lpcrel_hi3)
	sd	a0, 56(sp)
	li	s4, 1
	sd	s4, 64(sp)
	sd	zero, 40(sp)
	addi	a0, sp, 96
	sd	a0, 72(sp)
	sd	s4, 80(sp)
.Ltmp114:
.Lpcrel_hi4:
	auipc	a0, %pcrel_hi(.L__unnamed_10)
	addi	a1, a0, %pcrel_lo(.Lpcrel_hi4)
	addi	a0, sp, 40
	call	_ZN4core9panicking9panic_fmt17h85aa23e09415105eE@plt
.Ltmp115:
.LBB2_126:
	unimp	
.LBB2_127:
.Ltmp77:
	ld	a1, 56(sp)
	ld	a2, 48(sp)
	ld	a3, 40(sp)
	mv	s3, a0
	sd	a1, 112(sp)
	sd	a2, 104(sp)
	sd	a3, 96(sp)
	j	.LBB2_147
.LBB2_128:
.Ltmp90:
	ld	a1, 8(s3)
	ld	a2, 16(s3)
	mv	s3, a0
	mv	a0, s0
	call	_ZN5alloc5alloc8box_free17hab3460fb52d5dd94E
	li	s4, 1
	j	.LBB2_162
.LBB2_129:
.Ltmp96:
	mv	s3, a0
.Ltmp97:
	addi	a0, sp, 24
	call	_ZN4core3ptr79drop_in_place$LT$core..option..Option$LT$tokio..runtime..handle..Handle$GT$$GT$17h0d2c5f7daf3014d7E
.Ltmp98:
	li	s4, 0
	j	.LBB2_163
.LBB2_131:
.Ltmp99:
	call	_ZN4core9panicking19panic_cannot_unwind17h7b6652c0f2f24b81E@plt
	unimp	
.LBB2_132:
.Ltmp12:
	mv	s3, a0
.Ltmp13:
	mv	a0, s1
	call	_ZN4core3ptr110drop_in_place$LT$tokio..runtime..task..UnownedTask$LT$tokio..runtime..blocking..schedule..NoopSchedule$GT$$GT$17h8cf21c2a2cc148c5E
.Ltmp14:
	j	.LBB2_156
.LBB2_133:
.Ltmp30:
	j	.LBB2_155
.LBB2_134:
.Ltmp17:
	mv	s3, a0
.Ltmp18:
	mv	a0, s1
	call	_ZN4core3ptr103drop_in_place$LT$tokio..runtime..task..Task$LT$tokio..runtime..blocking..schedule..NoopSchedule$GT$$GT$17h3f6c21c29ceaaae2E
.Ltmp19:
	j	.LBB2_156
.LBB2_135:
.Ltmp20:
	call	_ZN4core9panicking19panic_cannot_unwind17h7b6652c0f2f24b81E@plt
	unimp	
.LBB2_136:
.Ltmp93:
	mv	s3, a0
	j	.LBB2_162
.LBB2_137:
.Ltmp116:
	mv	s3, a0
	j	.LBB2_163
.LBB2_138:
.Ltmp106:
	mv	s3, a0
	j	.LBB2_152
.LBB2_139:
.Ltmp27:
	j	.LBB2_155
.LBB2_140:
.Ltmp61:
	mv	s3, a0
.Ltmp62:
	mv	a0, s1
	call	_ZN4core3ptr103drop_in_place$LT$tokio..runtime..task..Task$LT$tokio..runtime..blocking..schedule..NoopSchedule$GT$$GT$17h3f6c21c29ceaaae2E
.Ltmp63:
	j	.LBB2_156
.LBB2_141:
.Ltmp64:
	call	_ZN4core9panicking19panic_cannot_unwind17h7b6652c0f2f24b81E@plt
	unimp	
.LBB2_142:
.Ltmp74:
	j	.LBB2_155
.LBB2_143:
.Ltmp55:
	mv	s3, a0
.Ltmp56:
	mv	a0, s1
	call	_ZN4core3ptr103drop_in_place$LT$tokio..runtime..task..Task$LT$tokio..runtime..blocking..schedule..NoopSchedule$GT$$GT$17h3f6c21c29ceaaae2E
.Ltmp57:
	j	.LBB2_156
.LBB2_144:
.Ltmp58:
	call	_ZN4core9panicking19panic_cannot_unwind17h7b6652c0f2f24b81E@plt
	unimp	
.LBB2_145:
.Ltmp50:
	mv	s3, a0
.Ltmp51:
	mv	a0, s1
	call	_ZN4core3ptr110drop_in_place$LT$tokio..runtime..task..UnownedTask$LT$tokio..runtime..blocking..schedule..NoopSchedule$GT$$GT$17h8cf21c2a2cc148c5E
.Ltmp52:
	j	.LBB2_156
.LBB2_146:
.Ltmp45:
	mv	s3, a0
.LBB2_147:
	li	s2, 1
	j	.LBB2_157
.LBB2_148:
.Ltmp39:
	mv	s3, a0
.Ltmp40:
	addi	a0, sp, 40
	call	_ZN4core3ptr103drop_in_place$LT$std..sync..poison..PoisonError$LT$std..sync..mutex..MutexGuard$LT$$LP$$RP$$GT$$GT$$GT$17h28c052352901ef93E
.Ltmp41:
	j	.LBB2_151
.LBB2_149:
.Ltmp42:
	call	_ZN4core9panicking19panic_cannot_unwind17h7b6652c0f2f24b81E@plt
	unimp	
.LBB2_150:
.Ltmp33:
	mv	s3, a0
.Ltmp34:
	mv	a0, s5
	mv	a1, s7
	call	_ZN4core3ptr121drop_in_place$LT$std..sync..poison..PoisonError$LT$std..sync..mutex..MutexGuard$LT$tokio..io..util..mem..Pipe$GT$$GT$$GT$17haeaff8cb67a08524E
.Ltmp35:
.LBB2_151:
	li	s2, 0
	li	s6, 1
.LBB2_152:
	mv	s7, s1
	j	.LBB2_158
.LBB2_153:
.Ltmp36:
	call	_ZN4core9panicking19panic_cannot_unwind17h7b6652c0f2f24b81E@plt
	unimp	
.LBB2_154:
.Ltmp71:
.LBB2_155:
	mv	s3, a0
.LBB2_156:
	li	s2, 0
.LBB2_157:
	li	s6, 1
.LBB2_158:
	ld	a0, 104(sp)
	snez	a0, a0
	and	a0, s6, a0
	beqz	a0, .LBB2_160
.Ltmp107:
	addi	a0, sp, 96
	call	_ZN4core3ptr60drop_in_place$LT$std..thread..JoinHandle$LT$$LP$$RP$$GT$$GT$17hd5e840d5d6ca7ba7E
.Ltmp108:
.LBB2_160:
	li	s4, 1
	beqz	s2, .LBB2_162
.Ltmp109:
	mv	a0, s5
	mv	a1, s7
	call	_ZN4core3ptr121drop_in_place$LT$std..sync..poison..PoisonError$LT$std..sync..mutex..MutexGuard$LT$tokio..io..util..mem..Pipe$GT$$GT$$GT$17haeaff8cb67a08524E
.Ltmp110:
.LBB2_162:
.Ltmp112:
	addi	a0, sp, 24
	call	_ZN4core3ptr56drop_in_place$LT$tokio..runtime..context..EnterGuard$GT$17h0d53b87e4d0b7e00E
.Ltmp113:
.LBB2_163:
.Ltmp117:
	ld	a0, 16(sp)
	call	_ZN4core3ptr51drop_in_place$LT$tokio..runtime..handle..Handle$GT$17he289a7551b19ad59E
.Ltmp118:
	beqz	s4, .LBB2_166
	ld	a0, 16(sp)
	ld	a0, 24(a0)
.Ltmp119:
	call	_ZN4core3ptr63drop_in_place$LT$tokio..runtime..blocking..shutdown..Sender$GT$17hdd5b35a7983e6dc0E
.Ltmp120:
.LBB2_166:
	mv	a0, s3
	call	_Unwind_Resume@plt
	unimp	
.LBB2_167:
.Ltmp121:
	call	_ZN4core9panicking19panic_cannot_unwind17h7b6652c0f2f24b81E@plt
	unimp	
.LBB2_168:
.Ltmp111:
	call	_ZN4core9panicking19panic_cannot_unwind17h7b6652c0f2f24b81E@plt
	unimp	
.Lfunc_end2:
	.size	_ZN3std10sys_common9backtrace28__rust_begin_short_backtrace17h58c07a4292c6ae6cE, .Lfunc_end2-_ZN3std10sys_common9backtrace28__rust_begin_short_backtrace17h58c07a4292c6ae6cE
	.cfi_endproc
	.section	.gcc_except_table._ZN3std10sys_common9backtrace28__rust_begin_short_backtrace17h58c07a4292c6ae6cE,"a",@progbits
	.p2align	2, 0x0
GCC_except_table2:
.Lexception0:
	.byte	255
	.byte	255
	.byte	3
	.uleb128 .Lcst_end0-.Lcst_begin0
.Lcst_begin0:
	.word	.Ltmp0-.Lfunc_begin0
	.word	.Ltmp1-.Ltmp0
	.word	.Ltmp116-.Lfunc_begin0
	.byte	0
	.word	.Ltmp2-.Lfunc_begin0
	.word	.Ltmp7-.Ltmp2
	.word	.Ltmp93-.Lfunc_begin0
	.byte	0
	.word	.Ltmp10-.Lfunc_begin0
	.word	.Ltmp11-.Ltmp10
	.word	.Ltmp12-.Lfunc_begin0
	.byte	0
	.word	.Ltmp15-.Lfunc_begin0
	.word	.Ltmp16-.Ltmp15
	.word	.Ltmp17-.Lfunc_begin0
	.byte	0
	.word	.Ltmp21-.Lfunc_begin0
	.word	.Ltmp26-.Ltmp21
	.word	.Ltmp27-.Lfunc_begin0
	.byte	0
	.word	.Ltmp31-.Lfunc_begin0
	.word	.Ltmp32-.Ltmp31
	.word	.Ltmp33-.Lfunc_begin0
	.byte	0
	.word	.Ltmp43-.Lfunc_begin0
	.word	.Ltmp44-.Ltmp43
	.word	.Ltmp45-.Lfunc_begin0
	.byte	0
	.word	.Ltmp8-.Lfunc_begin0
	.word	.Ltmp9-.Ltmp8
	.word	.Ltmp12-.Lfunc_begin0
	.byte	0
	.word	.Ltmp48-.Lfunc_begin0
	.word	.Ltmp47-.Ltmp48
	.word	.Ltmp50-.Lfunc_begin0
	.byte	0
	.word	.Ltmp59-.Lfunc_begin0
	.word	.Ltmp60-.Ltmp59
	.word	.Ltmp61-.Lfunc_begin0
	.byte	0
	.word	.Ltmp65-.Lfunc_begin0
	.word	.Ltmp70-.Ltmp65
	.word	.Ltmp71-.Lfunc_begin0
	.byte	0
	.word	.Ltmp78-.Lfunc_begin0
	.word	.Ltmp87-.Ltmp78
	.word	.Ltmp106-.Lfunc_begin0
	.byte	0
	.word	.Ltmp88-.Lfunc_begin0
	.word	.Ltmp89-.Ltmp88
	.word	.Ltmp90-.Lfunc_begin0
	.byte	0
	.word	.Ltmp91-.Lfunc_begin0
	.word	.Ltmp92-.Ltmp91
	.word	.Ltmp93-.Lfunc_begin0
	.byte	0
	.word	.Ltmp94-.Lfunc_begin0
	.word	.Ltmp95-.Ltmp94
	.word	.Ltmp96-.Lfunc_begin0
	.byte	0
	.word	.Ltmp100-.Lfunc_begin0
	.word	.Ltmp101-.Ltmp100
	.word	.Ltmp116-.Lfunc_begin0
	.byte	0
	.word	.Ltmp80-.Lfunc_begin0
	.word	.Ltmp81-.Ltmp80
	.word	.Ltmp106-.Lfunc_begin0
	.byte	0
	.word	.Ltmp102-.Lfunc_begin0
	.word	.Ltmp103-.Ltmp102
	.word	.Ltmp116-.Lfunc_begin0
	.byte	0
	.word	.Ltmp103-.Lfunc_begin0
	.word	.Ltmp75-.Ltmp103
	.word	0
	.byte	0
	.word	.Ltmp75-.Lfunc_begin0
	.word	.Ltmp76-.Ltmp75
	.word	.Ltmp77-.Lfunc_begin0
	.byte	0
	.word	.Ltmp104-.Lfunc_begin0
	.word	.Ltmp105-.Ltmp104
	.word	.Ltmp106-.Lfunc_begin0
	.byte	0
	.word	.Ltmp37-.Lfunc_begin0
	.word	.Ltmp38-.Ltmp37
	.word	.Ltmp39-.Lfunc_begin0
	.byte	0
	.word	.Ltmp53-.Lfunc_begin0
	.word	.Ltmp54-.Ltmp53
	.word	.Ltmp55-.Lfunc_begin0
	.byte	0
	.word	.Ltmp72-.Lfunc_begin0
	.word	.Ltmp73-.Ltmp72
	.word	.Ltmp74-.Lfunc_begin0
	.byte	0
	.word	.Ltmp28-.Lfunc_begin0
	.word	.Ltmp29-.Ltmp28
	.word	.Ltmp30-.Lfunc_begin0
	.byte	0
	.word	.Ltmp114-.Lfunc_begin0
	.word	.Ltmp115-.Ltmp114
	.word	.Ltmp116-.Lfunc_begin0
	.byte	0
	.word	.Ltmp97-.Lfunc_begin0
	.word	.Ltmp98-.Ltmp97
	.word	.Ltmp99-.Lfunc_begin0
	.byte	0
	.word	.Ltmp13-.Lfunc_begin0
	.word	.Ltmp14-.Ltmp13
	.word	.Ltmp111-.Lfunc_begin0
	.byte	0
	.word	.Ltmp18-.Lfunc_begin0
	.word	.Ltmp19-.Ltmp18
	.word	.Ltmp20-.Lfunc_begin0
	.byte	0
	.word	.Ltmp62-.Lfunc_begin0
	.word	.Ltmp63-.Ltmp62
	.word	.Ltmp64-.Lfunc_begin0
	.byte	0
	.word	.Ltmp56-.Lfunc_begin0
	.word	.Ltmp57-.Ltmp56
	.word	.Ltmp58-.Lfunc_begin0
	.byte	0
	.word	.Ltmp51-.Lfunc_begin0
	.word	.Ltmp52-.Ltmp51
	.word	.Ltmp111-.Lfunc_begin0
	.byte	0
	.word	.Ltmp40-.Lfunc_begin0
	.word	.Ltmp41-.Ltmp40
	.word	.Ltmp42-.Lfunc_begin0
	.byte	0
	.word	.Ltmp34-.Lfunc_begin0
	.word	.Ltmp35-.Ltmp34
	.word	.Ltmp36-.Lfunc_begin0
	.byte	0
	.word	.Ltmp107-.Lfunc_begin0
	.word	.Ltmp110-.Ltmp107
	.word	.Ltmp111-.Lfunc_begin0
	.byte	0
	.word	.Ltmp112-.Lfunc_begin0
	.word	.Ltmp120-.Ltmp112
	.word	.Ltmp121-.Lfunc_begin0
	.byte	0
	.word	.Ltmp120-.Lfunc_begin0
	.word	.Lfunc_end2-.Ltmp120
	.word	0
	.byte	0
.Lcst_end0:
	.p2align	2, 0x0

	.section	.text._ZN3std2io5Write9write_fmt17h096dfebf0ed6161aE,"ax",@progbits
	.p2align	1
	.type	_ZN3std2io5Write9write_fmt17h096dfebf0ed6161aE,@function
_ZN3std2io5Write9write_fmt17h096dfebf0ed6161aE:
.Lfunc_begin1:
	.cfi_startproc
	.cfi_personality 155, DW.ref.rust_eh_personality
	.cfi_lsda 27, .Lexception1
	addi	sp, sp, -96
	.cfi_def_cfa_offset 96
	sd	ra, 88(sp)
	sd	s0, 80(sp)
	sd	s1, 72(sp)
	.cfi_offset ra, -8
	.cfi_offset s0, -16
	.cfi_offset s1, -24
	ld	a2, 40(a1)
	ld	a3, 32(a1)
	sd	a0, 16(sp)
	ld	a0, 24(a1)
	sd	a2, 64(sp)
	sd	a3, 56(sp)
	ld	a2, 16(a1)
	sd	a0, 48(sp)
	ld	a0, 8(a1)
	ld	a1, 0(a1)
	sd	a2, 40(sp)
	sd	zero, 8(sp)
	sd	a0, 32(sp)
	sd	a1, 24(sp)
.Ltmp122:
.Lpcrel_hi25:
	auipc	a0, %pcrel_hi(.L__unnamed_11)
	addi	a1, a0, %pcrel_lo(.Lpcrel_hi25)
	addi	a0, sp, 8
	addi	a2, sp, 24
	call	_ZN4core3fmt5write17hb6def4bb8bd3cfcaE@plt
.Ltmp123:
	ld	s0, 8(sp)
	beqz	a0, .LBB3_4
	bnez	s0, .LBB3_10
.Lpcrel_hi26:
	auipc	a0, %pcrel_hi(.L__unnamed_12)
	addi	s0, a0, %pcrel_lo(.Lpcrel_hi26)
	j	.LBB3_10
.LBB3_4:
	seqz	a0, s0
	andi	a1, s0, 3
	addi	a1, a1, -1
	snez	a1, a1
	or	a0, a0, a1
	bnez	a0, .LBB3_9
	ld	a1, 7(s0)
	ld	a0, -1(s0)
	ld	a1, 0(a1)
	addi	s1, s0, -1
.Ltmp128:
	jalr	a1
.Ltmp129:
	ld	a0, 7(s0)
	ld	a1, 8(a0)
	beqz	a1, .LBB3_8
	ld	a2, 16(a0)
	ld	a0, 0(s1)
	call	__rust_dealloc@plt
.LBB3_8:
	li	a1, 24
	li	a2, 8
	mv	a0, s1
	call	__rust_dealloc@plt
.LBB3_9:
	li	s0, 0
.LBB3_10:
	mv	a0, s0
	ld	ra, 88(sp)
	ld	s0, 80(sp)
	ld	s1, 72(sp)
	addi	sp, sp, 96
	ret
.LBB3_11:
.Ltmp130:
	ld	a2, 7(s0)
	ld	a3, -1(s0)
	ld	a1, 8(a2)
	ld	a2, 16(a2)
	mv	s0, a0
	mv	a0, a3
	call	_ZN5alloc5alloc8box_free17hab3460fb52d5dd94E
	mv	a0, s1
	call	_ZN5alloc5alloc8box_free17h07113bd725719d0aE
	j	.LBB3_13
.LBB3_12:
.Ltmp124:
	mv	s0, a0
.Ltmp125:
	addi	a0, sp, 8
	call	_ZN4core3ptr92drop_in_place$LT$std..io..Write..write_fmt..Adapter$LT$std..sys..unix..stdio..Stderr$GT$$GT$17h966814c4a8fc713eE
.Ltmp126:
.LBB3_13:
	mv	a0, s0
	call	_Unwind_Resume@plt
	unimp	
.LBB3_14:
.Ltmp127:
	call	_ZN4core9panicking19panic_cannot_unwind17h7b6652c0f2f24b81E@plt
	unimp	
.Lfunc_end3:
	.size	_ZN3std2io5Write9write_fmt17h096dfebf0ed6161aE, .Lfunc_end3-_ZN3std2io5Write9write_fmt17h096dfebf0ed6161aE
	.cfi_endproc
	.section	.gcc_except_table._ZN3std2io5Write9write_fmt17h096dfebf0ed6161aE,"a",@progbits
	.p2align	2, 0x0
GCC_except_table3:
.Lexception1:
	.byte	255
	.byte	255
	.byte	3
	.uleb128 .Lcst_end1-.Lcst_begin1
.Lcst_begin1:
	.word	.Ltmp122-.Lfunc_begin1
	.word	.Ltmp123-.Ltmp122
	.word	.Ltmp124-.Lfunc_begin1
	.byte	0
	.word	.Ltmp128-.Lfunc_begin1
	.word	.Ltmp129-.Ltmp128
	.word	.Ltmp130-.Lfunc_begin1
	.byte	0
	.word	.Ltmp125-.Lfunc_begin1
	.word	.Ltmp126-.Ltmp125
	.word	.Ltmp127-.Lfunc_begin1
	.byte	0
	.word	.Ltmp126-.Lfunc_begin1
	.word	.Lfunc_end3-.Ltmp126
	.word	0
	.byte	0
.Lcst_end1:
	.p2align	2, 0x0

	.section	.text._ZN3std2io5error5Error3new17hd5cc5b40b162db9eE,"ax",@progbits
	.p2align	1
	.type	_ZN3std2io5error5Error3new17hd5cc5b40b162db9eE,@function
_ZN3std2io5error5Error3new17hd5cc5b40b162db9eE:
.Lfunc_begin2:
	.cfi_startproc
	.cfi_personality 155, DW.ref.rust_eh_personality
	.cfi_lsda 27, .Lexception2
	addi	sp, sp, -80
	.cfi_def_cfa_offset 80
	sd	ra, 72(sp)
	sd	s0, 64(sp)
	sd	s1, 56(sp)
	sd	s2, 48(sp)
	sd	s3, 40(sp)
	sd	s4, 32(sp)
	.cfi_offset ra, -8
	.cfi_offset s0, -16
	.cfi_offset s1, -24
	.cfi_offset s2, -32
	.cfi_offset s3, -40
	.cfi_offset s4, -48
	mv	s0, a2
	mv	s3, a1
	mv	s2, a0
	beqz	a2, .LBB4_4
	bltz	s0, .LBB4_9
	slti	a0, s0, 0
	xori	s4, a0, 1
	mv	a0, s0
	mv	a1, s4
	call	__rust_alloc@plt
	mv	s1, a0
	bnez	a0, .LBB4_5
	mv	a0, s0
	mv	a1, s4
	call	_ZN5alloc5alloc18handle_alloc_error17h8412bfc71c845112E@plt
	unimp	
.LBB4_4:
	li	s1, 1
.LBB4_5:
	mv	a0, s1
	mv	a1, s3
	mv	a2, s0
	call	memcpy@plt
	sd	s0, 8(sp)
	sd	s1, 16(sp)
	sd	s0, 24(sp)
	li	a0, 24
	li	a1, 8
	call	__rust_alloc@plt
	beqz	a0, .LBB4_7
	mv	a1, a0
	sd	s0, 0(a0)
	sd	s1, 8(a0)
.Lpcrel_hi27:
	auipc	a0, %pcrel_hi(.L__unnamed_13)
	addi	a2, a0, %pcrel_lo(.Lpcrel_hi27)
	sd	s0, 16(a1)
	mv	a0, s2
	ld	ra, 72(sp)
	ld	s0, 64(sp)
	ld	s1, 56(sp)
	ld	s2, 48(sp)
	ld	s3, 40(sp)
	ld	s4, 32(sp)
	addi	sp, sp, 80
	tail	_ZN3std2io5error5Error4_new17h394b3b722eb16269E@plt
.LBB4_7:
.Ltmp131:
	li	a0, 24
	li	a1, 8
	call	_ZN5alloc5alloc18handle_alloc_error17h8412bfc71c845112E@plt
.Ltmp132:
	unimp	
.LBB4_9:
	call	_ZN5alloc7raw_vec17capacity_overflow17hdb32f70b52ca36cbE@plt
	unimp	
.LBB4_10:
.Ltmp133:
	mv	s0, a0
	addi	a0, sp, 8
	call	_ZN4core3ptr205drop_in_place$LT$$LT$alloc..boxed..Box$LT$dyn$u20$core..error..Error$u2b$core..marker..Send$u2b$core..marker..Sync$GT$$u20$as$u20$core..convert..From$LT$alloc..string..String$GT$$GT$..from..StringError$GT$17h525961f1e1119e9dE
	mv	a0, s0
	call	_Unwind_Resume@plt
	unimp	
.Lfunc_end4:
	.size	_ZN3std2io5error5Error3new17hd5cc5b40b162db9eE, .Lfunc_end4-_ZN3std2io5error5Error3new17hd5cc5b40b162db9eE
	.cfi_endproc
	.section	.gcc_except_table._ZN3std2io5error5Error3new17hd5cc5b40b162db9eE,"a",@progbits
	.p2align	2, 0x0
GCC_except_table4:
.Lexception2:
	.byte	255
	.byte	255
	.byte	3
	.uleb128 .Lcst_end2-.Lcst_begin2
.Lcst_begin2:
	.word	.Lfunc_begin2-.Lfunc_begin2
	.word	.Ltmp131-.Lfunc_begin2
	.word	0
	.byte	0
	.word	.Ltmp131-.Lfunc_begin2
	.word	.Ltmp132-.Ltmp131
	.word	.Ltmp133-.Lfunc_begin2
	.byte	0
	.word	.Ltmp132-.Lfunc_begin2
	.word	.Lfunc_end4-.Ltmp132
	.word	0
	.byte	0
.Lcst_end2:
	.p2align	2, 0x0

	.section	.text._ZN3std2io5error5Error4kind17h11504ab722287367E,"ax",@progbits
	.p2align	1
	.type	_ZN3std2io5error5Error4kind17h11504ab722287367E,@function
_ZN3std2io5error5Error4kind17h11504ab722287367E:
	.cfi_startproc
	andi	a1, a0, 3
	li	a2, 1
	blt	a2, a1, .LBB5_3
	bnez	a1, .LBB5_5
	lbu	a0, 16(a0)
	ret
.LBB5_3:
	srli	a0, a0, 32
	li	a2, 2
	bne	a1, a2, .LBB5_6
	tail	_ZN3std3sys4unix17decode_error_kind17h0dd30d6ca158d9eeE@plt
.LBB5_5:
	lbu	a0, 15(a0)
.LBB5_6:
	ret
.Lfunc_end5:
	.size	_ZN3std2io5error5Error4kind17h11504ab722287367E, .Lfunc_end5-_ZN3std2io5error5Error4kind17h11504ab722287367E
	.cfi_endproc

	.section	".text._ZN3std3sys6common12thread_local10fast_local4fast12Key$LT$T$GT$14try_initialize17h69b3b3707c2963fcE","ax",@progbits
	.p2align	1
	.type	_ZN3std3sys6common12thread_local10fast_local4fast12Key$LT$T$GT$14try_initialize17h69b3b3707c2963fcE,@function
_ZN3std3sys6common12thread_local10fast_local4fast12Key$LT$T$GT$14try_initialize17h69b3b3707c2963fcE:
	.cfi_startproc
	addi	sp, sp, -32
	.cfi_def_cfa_offset 32
	sd	ra, 24(sp)
	sd	s0, 16(sp)
	sd	s1, 8(sp)
	.cfi_offset ra, -8
	.cfi_offset s0, -16
	.cfi_offset s1, -24
	beqz	a0, .LBB6_2
	ld	a1, 0(a0)
	ld	s0, 8(a0)
	ld	s1, 16(a0)
	li	a2, 1
	sd	zero, 0(a0)
	beq	a1, a2, .LBB6_3
.LBB6_2:
	call	_ZN3std3sys4unix4rand19hashmap_random_keys17h51762661a40297b5E@plt
	mv	s0, a0
	mv	s1, a1
.LBB6_3:
.Lpcrel_hi28:
	auipc	a0, %tls_gd_pcrel_hi(_ZN3std11collections4hash3map11RandomState3new4KEYS7__getit5__KEY17h99753dddb800fb05E)
	addi	a0, a0, %pcrel_lo(.Lpcrel_hi28)
	call	__tls_get_addr@plt
	li	a1, 1
	sd	a1, 0(a0)
	sd	s0, 8(a0)
	sd	s1, 16(a0)
	ld	ra, 24(sp)
	ld	s0, 16(sp)
	ld	s1, 8(sp)
	addi	sp, sp, 32
	ret
.Lfunc_end6:
	.size	_ZN3std3sys6common12thread_local10fast_local4fast12Key$LT$T$GT$14try_initialize17h69b3b3707c2963fcE, .Lfunc_end6-_ZN3std3sys6common12thread_local10fast_local4fast12Key$LT$T$GT$14try_initialize17h69b3b3707c2963fcE
	.cfi_endproc

	.section	".text._ZN3std3sys6common12thread_local10fast_local4fast12Key$LT$T$GT$14try_initialize17h83ea2bb447bc5810E","ax",@progbits
	.p2align	1
	.type	_ZN3std3sys6common12thread_local10fast_local4fast12Key$LT$T$GT$14try_initialize17h83ea2bb447bc5810E,@function
_ZN3std3sys6common12thread_local10fast_local4fast12Key$LT$T$GT$14try_initialize17h83ea2bb447bc5810E:
	.cfi_startproc
	addi	sp, sp, -32
	.cfi_def_cfa_offset 32
	sd	ra, 24(sp)
	sd	s0, 16(sp)
	sd	s1, 8(sp)
	.cfi_offset ra, -8
	.cfi_offset s0, -16
	.cfi_offset s1, -24
	mv	s0, a0
.Lpcrel_hi29:
	auipc	a0, %tls_gd_pcrel_hi(_ZN5tokio4task5local7CURRENT7__getit5__KEY17h10d9c79c8168aa5bE)
	addi	a0, a0, %pcrel_lo(.Lpcrel_hi29)
	call	__tls_get_addr@plt
	lbu	a0, 16(a0)
	beqz	a0, .LBB7_3
	li	a1, 1
	beq	a0, a1, .LBB7_4
	li	a0, 0
	j	.LBB7_9
.LBB7_3:
.Lpcrel_hi30:
	auipc	a0, %tls_gd_pcrel_hi(_ZN5tokio4task5local7CURRENT7__getit5__KEY17h10d9c79c8168aa5bE)
	addi	a0, a0, %pcrel_lo(.Lpcrel_hi30)
	call	__tls_get_addr@plt
	mv	s1, a0
.Lpcrel_hi31:
	auipc	a0, %pcrel_hi(_ZN3std3sys6common12thread_local10fast_local4fast13destroy_value17h352664a06f00313cE)
	addi	a1, a0, %pcrel_lo(.Lpcrel_hi31)
	mv	a0, s1
	call	_ZN3std3sys4unix17thread_local_dtor13register_dtor17h2a1f1a66f941b346E@plt
	li	a0, 1
	sb	a0, 16(s1)
.LBB7_4:
	beqz	s0, .LBB7_6
	ld	a0, 0(s0)
	ld	a1, 8(s0)
	sd	zero, 0(s0)
	seqz	a0, a0
	addi	a0, a0, -1
	and	s0, a0, a1
.LBB7_6:
.Lpcrel_hi32:
	auipc	a0, %tls_gd_pcrel_hi(_ZN5tokio4task5local7CURRENT7__getit5__KEY17h10d9c79c8168aa5bE)
	addi	a0, a0, %pcrel_lo(.Lpcrel_hi32)
	call	__tls_get_addr@plt
	ld	a2, 0(a0)
	ld	a1, 8(a0)
	li	a3, 1
	sd	a3, 0(a0)
	sd	s0, 8(a0)
	beqz	a2, .LBB7_8
	mv	a0, a1
	call	_ZN4core3ptr97drop_in_place$LT$core..option..Option$LT$alloc..rc..Rc$LT$tokio..task..local..Context$GT$$GT$$GT$17h93d2629e808133a2E
.Lpcrel_hi33:
	auipc	a0, %tls_gd_pcrel_hi(_ZN5tokio4task5local7CURRENT7__getit5__KEY17h10d9c79c8168aa5bE)
	addi	a0, a0, %pcrel_lo(.Lpcrel_hi33)
	call	__tls_get_addr@plt
.LBB7_8:
	addi	a0, a0, 8
.LBB7_9:
	ld	ra, 24(sp)
	ld	s0, 16(sp)
	ld	s1, 8(sp)
	addi	sp, sp, 32
	ret
.Lfunc_end7:
	.size	_ZN3std3sys6common12thread_local10fast_local4fast12Key$LT$T$GT$14try_initialize17h83ea2bb447bc5810E, .Lfunc_end7-_ZN3std3sys6common12thread_local10fast_local4fast12Key$LT$T$GT$14try_initialize17h83ea2bb447bc5810E
	.cfi_endproc

	.section	".text._ZN3std3sys6common12thread_local10fast_local4fast12Key$LT$T$GT$14try_initialize17h8725626cb27ec7b1E","ax",@progbits
	.p2align	1
	.type	_ZN3std3sys6common12thread_local10fast_local4fast12Key$LT$T$GT$14try_initialize17h8725626cb27ec7b1E,@function
_ZN3std3sys6common12thread_local10fast_local4fast12Key$LT$T$GT$14try_initialize17h8725626cb27ec7b1E:
	.cfi_startproc
	addi	sp, sp, -32
	.cfi_def_cfa_offset 32
	sd	ra, 24(sp)
	sd	s0, 16(sp)
	sd	s1, 8(sp)
	sd	s2, 0(sp)
	.cfi_offset ra, -8
	.cfi_offset s0, -16
	.cfi_offset s1, -24
	.cfi_offset s2, -32
	mv	s0, a0
.Lpcrel_hi34:
	auipc	a0, %tls_gd_pcrel_hi(_ZN5tokio4park6thread14CURRENT_PARKER7__getit5__KEY17h996238ed5b0d5d78E)
	addi	a0, a0, %pcrel_lo(.Lpcrel_hi34)
	call	__tls_get_addr@plt
	lbu	a0, 8(a0)
	beqz	a0, .LBB8_3
	li	a1, 1
	beq	a0, a1, .LBB8_4
	li	a0, 0
	j	.LBB8_11
.LBB8_3:
.Lpcrel_hi35:
	auipc	a0, %tls_gd_pcrel_hi(_ZN5tokio4park6thread14CURRENT_PARKER7__getit5__KEY17h996238ed5b0d5d78E)
	addi	a0, a0, %pcrel_lo(.Lpcrel_hi35)
	call	__tls_get_addr@plt
	mv	s1, a0
.Lpcrel_hi36:
	auipc	a0, %pcrel_hi(_ZN3std3sys6common12thread_local10fast_local4fast13destroy_value17hfdf1a20072525d60E)
	addi	a1, a0, %pcrel_lo(.Lpcrel_hi36)
	mv	a0, s1
	call	_ZN3std3sys4unix17thread_local_dtor13register_dtor17h2a1f1a66f941b346E@plt
	li	a0, 1
	sb	a0, 8(s1)
.LBB8_4:
	beqz	s0, .LBB8_6
	ld	s1, 0(s0)
	sd	zero, 0(s0)
	bnez	s1, .LBB8_8
.LBB8_6:
	li	a0, 40
	li	a1, 8
	call	__rust_alloc@plt
	beqz	a0, .LBB8_12
	mv	s1, a0
	li	a0, 1
	sd	a0, 0(s1)
	sd	a0, 8(s1)
	sd	zero, 16(s1)
	sw	zero, 24(s1)
	sb	zero, 28(s1)
	sw	zero, 32(s1)
.LBB8_8:
.Lpcrel_hi37:
	auipc	a0, %tls_gd_pcrel_hi(_ZN5tokio4park6thread14CURRENT_PARKER7__getit5__KEY17h996238ed5b0d5d78E)
	addi	a0, a0, %pcrel_lo(.Lpcrel_hi37)
	call	__tls_get_addr@plt
	ld	s0, 0(a0)
	sd	s1, 0(a0)
	beqz	s0, .LBB8_11
	li	s2, 1
	neg	a0, s2
	amoadd.d.rl	s1, a0, (s0)
.Lpcrel_hi38:
	auipc	a0, %tls_gd_pcrel_hi(_ZN5tokio4park6thread14CURRENT_PARKER7__getit5__KEY17h996238ed5b0d5d78E)
	addi	a0, a0, %pcrel_lo(.Lpcrel_hi38)
	call	__tls_get_addr@plt
	bne	s1, s2, .LBB8_11
	fence	r, rw
	mv	a0, s0
	call	_ZN5alloc4sync12Arc$LT$T$GT$9drop_slow17he8d26611fb527376E
.Lpcrel_hi39:
	auipc	a0, %tls_gd_pcrel_hi(_ZN5tokio4park6thread14CURRENT_PARKER7__getit5__KEY17h996238ed5b0d5d78E)
	addi	a0, a0, %pcrel_lo(.Lpcrel_hi39)
	call	__tls_get_addr@plt
.LBB8_11:
	ld	ra, 24(sp)
	ld	s0, 16(sp)
	ld	s1, 8(sp)
	ld	s2, 0(sp)
	addi	sp, sp, 32
	ret
.LBB8_12:
	li	a0, 40
	li	a1, 8
	call	_ZN5alloc5alloc18handle_alloc_error17h8412bfc71c845112E@plt
	unimp	
.Lfunc_end8:
	.size	_ZN3std3sys6common12thread_local10fast_local4fast12Key$LT$T$GT$14try_initialize17h8725626cb27ec7b1E, .Lfunc_end8-_ZN3std3sys6common12thread_local10fast_local4fast12Key$LT$T$GT$14try_initialize17h8725626cb27ec7b1E
	.cfi_endproc

	.section	.text._ZN3std3sys6common12thread_local10fast_local4fast13destroy_value17h352664a06f00313cE,"ax",@progbits
	.p2align	1
	.type	_ZN3std3sys6common12thread_local10fast_local4fast13destroy_value17h352664a06f00313cE,@function
_ZN3std3sys6common12thread_local10fast_local4fast13destroy_value17h352664a06f00313cE:
.Lfunc_begin3:
	.cfi_startproc
	.cfi_personality 155, DW.ref.rust_eh_personality
	.cfi_lsda 27, .Lexception3
	addi	sp, sp, -144
	.cfi_def_cfa_offset 144
	sd	ra, 136(sp)
	.cfi_offset ra, -8
	sd	a0, 8(sp)
	addi	a0, sp, 8
	sd	a0, 80(sp)
.Ltmp134:
.Lpcrel_hi40:
	auipc	a0, %pcrel_hi(_ZN3std9panicking3try7do_call17h358e6ccf5fffca07E)
	addi	a0, a0, %pcrel_lo(.Lpcrel_hi40)
.Lpcrel_hi41:
	auipc	a1, %pcrel_hi(_ZN3std9panicking3try8do_catch17h03c8084d83bdb4a7E)
	addi	a2, a1, %pcrel_lo(.Lpcrel_hi41)
	addi	a1, sp, 80
	call	__rust_try
.Ltmp135:
	ld	a1, 80(sp)
	sext.w	a0, a0
	seqz	a0, a0
	seqz	a1, a1
	or	a0, a0, a1
	beqz	a0, .LBB9_3
	ld	ra, 136(sp)
	addi	sp, sp, 144
	ret
.LBB9_3:
.Ltmp136:
	call	_ZN3std3sys4unix5stdio12panic_output17h702cdad912495ddaE@plt
.Ltmp137:
	beqz	a0, .LBB9_7
.Lpcrel_hi42:
	auipc	a0, %pcrel_hi(.L__unnamed_14)
	addi	a0, a0, %pcrel_lo(.Lpcrel_hi42)
	sd	a0, 96(sp)
	li	a0, 1
	sd	a0, 104(sp)
	sd	zero, 80(sp)
.Lpcrel_hi43:
	auipc	a1, %pcrel_hi(.L__unnamed_15)
	addi	a1, a1, %pcrel_lo(.Lpcrel_hi43)
	sd	a1, 112(sp)
.Lpcrel_hi44:
	auipc	a1, %got_pcrel_hi(_ZN59_$LT$core..fmt..Arguments$u20$as$u20$core..fmt..Display$GT$3fmt17hb244eff72a1e5186E)
	ld	a1, %pcrel_lo(.Lpcrel_hi44)(a1)
	addi	a2, sp, 80
	sd	a2, 64(sp)
	sd	zero, 120(sp)
	sd	a1, 72(sp)
.Lpcrel_hi45:
	auipc	a1, %pcrel_hi(.L__unnamed_16)
	addi	a1, a1, %pcrel_lo(.Lpcrel_hi45)
	sd	a1, 32(sp)
	li	a1, 2
	sd	a1, 40(sp)
	sd	zero, 16(sp)
	addi	a1, sp, 64
	sd	a1, 48(sp)
	sd	a0, 56(sp)
.Ltmp138:
	addi	a0, sp, 128
	addi	a1, sp, 16
	call	_ZN3std2io5Write9write_fmt17h096dfebf0ed6161aE
.Ltmp139:
.Ltmp140:
	call	_ZN4core3ptr81drop_in_place$LT$core..result..Result$LT$$LP$$RP$$C$std..io..error..Error$GT$$GT$17h0f3a20d3779f3950E
.Ltmp141:
.LBB9_7:
.Ltmp142:
	call	_ZN3std3sys4unix14abort_internal17hb8d569db71ac0bd2E@plt
.Ltmp143:
	unimp	
.LBB9_9:
.Ltmp144:
	call	_ZN4core9panicking19panic_cannot_unwind17h7b6652c0f2f24b81E@plt
	unimp	
.Lfunc_end9:
	.size	_ZN3std3sys6common12thread_local10fast_local4fast13destroy_value17h352664a06f00313cE, .Lfunc_end9-_ZN3std3sys6common12thread_local10fast_local4fast13destroy_value17h352664a06f00313cE
	.cfi_endproc
	.section	.gcc_except_table._ZN3std3sys6common12thread_local10fast_local4fast13destroy_value17h352664a06f00313cE,"a",@progbits
	.p2align	2, 0x0
GCC_except_table9:
.Lexception3:
	.byte	255
	.byte	255
	.byte	3
	.uleb128 .Lcst_end3-.Lcst_begin3
.Lcst_begin3:
	.word	.Ltmp134-.Lfunc_begin3
	.word	.Ltmp143-.Ltmp134
	.word	.Ltmp144-.Lfunc_begin3
	.byte	0
.Lcst_end3:
	.p2align	2, 0x0

	.section	.text._ZN3std3sys6common12thread_local10fast_local4fast13destroy_value17hfdf1a20072525d60E,"ax",@progbits
	.p2align	1
	.type	_ZN3std3sys6common12thread_local10fast_local4fast13destroy_value17hfdf1a20072525d60E,@function
_ZN3std3sys6common12thread_local10fast_local4fast13destroy_value17hfdf1a20072525d60E:
.Lfunc_begin4:
	.cfi_startproc
	.cfi_personality 155, DW.ref.rust_eh_personality
	.cfi_lsda 27, .Lexception4
	addi	sp, sp, -144
	.cfi_def_cfa_offset 144
	sd	ra, 136(sp)
	.cfi_offset ra, -8
	sd	a0, 8(sp)
	addi	a0, sp, 8
	sd	a0, 80(sp)
.Ltmp145:
.Lpcrel_hi46:
	auipc	a0, %pcrel_hi(_ZN3std9panicking3try7do_call17hc2f919a405ec36a2E)
	addi	a0, a0, %pcrel_lo(.Lpcrel_hi46)
.Lpcrel_hi47:
	auipc	a1, %pcrel_hi(_ZN3std9panicking3try8do_catch17h03c8084d83bdb4a7E)
	addi	a2, a1, %pcrel_lo(.Lpcrel_hi47)
	addi	a1, sp, 80
	call	__rust_try
.Ltmp146:
	ld	a1, 80(sp)
	sext.w	a0, a0
	seqz	a0, a0
	seqz	a1, a1
	or	a0, a0, a1
	beqz	a0, .LBB10_3
	ld	ra, 136(sp)
	addi	sp, sp, 144
	ret
.LBB10_3:
.Ltmp147:
	call	_ZN3std3sys4unix5stdio12panic_output17h702cdad912495ddaE@plt
.Ltmp148:
	beqz	a0, .LBB10_7
.Lpcrel_hi48:
	auipc	a0, %pcrel_hi(.L__unnamed_14)
	addi	a0, a0, %pcrel_lo(.Lpcrel_hi48)
	sd	a0, 96(sp)
	li	a0, 1
	sd	a0, 104(sp)
	sd	zero, 80(sp)
.Lpcrel_hi49:
	auipc	a1, %pcrel_hi(.L__unnamed_15)
	addi	a1, a1, %pcrel_lo(.Lpcrel_hi49)
	sd	a1, 112(sp)
.Lpcrel_hi50:
	auipc	a1, %got_pcrel_hi(_ZN59_$LT$core..fmt..Arguments$u20$as$u20$core..fmt..Display$GT$3fmt17hb244eff72a1e5186E)
	ld	a1, %pcrel_lo(.Lpcrel_hi50)(a1)
	addi	a2, sp, 80
	sd	a2, 64(sp)
	sd	zero, 120(sp)
	sd	a1, 72(sp)
.Lpcrel_hi51:
	auipc	a1, %pcrel_hi(.L__unnamed_16)
	addi	a1, a1, %pcrel_lo(.Lpcrel_hi51)
	sd	a1, 32(sp)
	li	a1, 2
	sd	a1, 40(sp)
	sd	zero, 16(sp)
	addi	a1, sp, 64
	sd	a1, 48(sp)
	sd	a0, 56(sp)
.Ltmp149:
	addi	a0, sp, 128
	addi	a1, sp, 16
	call	_ZN3std2io5Write9write_fmt17h096dfebf0ed6161aE
.Ltmp150:
.Ltmp151:
	call	_ZN4core3ptr81drop_in_place$LT$core..result..Result$LT$$LP$$RP$$C$std..io..error..Error$GT$$GT$17h0f3a20d3779f3950E
.Ltmp152:
.LBB10_7:
.Ltmp153:
	call	_ZN3std3sys4unix14abort_internal17hb8d569db71ac0bd2E@plt
.Ltmp154:
	unimp	
.LBB10_9:
.Ltmp155:
	call	_ZN4core9panicking19panic_cannot_unwind17h7b6652c0f2f24b81E@plt
	unimp	
.Lfunc_end10:
	.size	_ZN3std3sys6common12thread_local10fast_local4fast13destroy_value17hfdf1a20072525d60E, .Lfunc_end10-_ZN3std3sys6common12thread_local10fast_local4fast13destroy_value17hfdf1a20072525d60E
	.cfi_endproc
	.section	.gcc_except_table._ZN3std3sys6common12thread_local10fast_local4fast13destroy_value17hfdf1a20072525d60E,"a",@progbits
	.p2align	2, 0x0
GCC_except_table10:
.Lexception4:
	.byte	255
	.byte	255
	.byte	3
	.uleb128 .Lcst_end4-.Lcst_begin4
.Lcst_begin4:
	.word	.Ltmp145-.Lfunc_begin4
	.word	.Ltmp154-.Ltmp145
	.word	.Ltmp155-.Lfunc_begin4
	.byte	0
.Lcst_end4:
	.p2align	2, 0x0

	.section	".text._ZN3std6thread19JoinHandle$LT$T$GT$4join17ha20490964f820ddcE","ax",@progbits
	.p2align	1
	.type	_ZN3std6thread19JoinHandle$LT$T$GT$4join17ha20490964f820ddcE,@function
_ZN3std6thread19JoinHandle$LT$T$GT$4join17ha20490964f820ddcE:
.Lfunc_begin5:
	.cfi_startproc
	.cfi_personality 155, DW.ref.rust_eh_personality
	.cfi_lsda 27, .Lexception5
	addi	sp, sp, -64
	.cfi_def_cfa_offset 64
	sd	ra, 56(sp)
	sd	s0, 48(sp)
	sd	s1, 40(sp)
	sd	s2, 32(sp)
	sd	s3, 24(sp)
	sd	s4, 16(sp)
	sd	s5, 8(sp)
	.cfi_offset ra, -8
	.cfi_offset s0, -16
	.cfi_offset s1, -24
	.cfi_offset s2, -32
	.cfi_offset s3, -40
	.cfi_offset s4, -48
	.cfi_offset s5, -56
	ld	a1, 0(a0)
	ld	s2, 8(a0)
	ld	s0, 16(a0)
.Ltmp156:
	mv	a0, a1
	call	_ZN3std3sys4unix6thread6Thread4join17h63937bf8e44033feE@plt
.Ltmp157:
	addi	a1, s0, 8
	li	a2, -1
	li	a0, 1
.LBB11_15:
	lr.d.aq	a3, (a1)
	bne	a3, a0, .LBB11_17
	sc.d	a4, a2, (a1)
	bnez	a4, .LBB11_15
.LBB11_17:
.Lpcrel_hi52:
	auipc	a1, %pcrel_hi(.L__unnamed_17)
	addi	a2, a1, %pcrel_lo(.Lpcrel_hi52)
	bne	a3, a0, .LBB11_10
	ld	a1, 0(s0)
	fence	r, rw
	fence	rw, w
	sd	a0, 8(s0)
	bne	a1, a0, .LBB11_10
	ld	a0, 24(s0)
	ld	s4, 32(s0)
	ld	s3, 40(s0)
	sd	zero, 24(s0)
	beqz	a0, .LBB11_9
	li	s5, 1
	neg	s1, s5
	amoadd.d.rl	a0, s1, (s2)
	bne	a0, s5, .LBB11_6
	fence	r, rw
	mv	a0, s2
	call	_ZN5alloc4sync12Arc$LT$T$GT$9drop_slow17h8e7445b9a7071029E
.LBB11_6:
	amoadd.d.rl	a0, s1, (s0)
	bne	a0, s5, .LBB11_8
	fence	r, rw
	mv	a0, s0
	call	_ZN5alloc4sync12Arc$LT$T$GT$9drop_slow17h6ceedcf17224db3cE
.LBB11_8:
	mv	a0, s4
	mv	a1, s3
	ld	ra, 56(sp)
	ld	s0, 48(sp)
	ld	s1, 40(sp)
	ld	s2, 32(sp)
	ld	s3, 24(sp)
	ld	s4, 16(sp)
	ld	s5, 8(sp)
	addi	sp, sp, 64
	ret
.LBB11_9:
.Lpcrel_hi54:
	auipc	a0, %pcrel_hi(.L__unnamed_18)
	addi	a2, a0, %pcrel_lo(.Lpcrel_hi54)
.LBB11_10:
.Ltmp158:
.Lpcrel_hi53:
	auipc	a0, %pcrel_hi(.L__unnamed_19)
	addi	a0, a0, %pcrel_lo(.Lpcrel_hi53)
	li	a1, 43
	call	_ZN4core9panicking5panic17h4b48b745900393b1E@plt
.Ltmp159:
	unimp	
.LBB11_12:
.Ltmp160:
	mv	s1, a0
	mv	a0, s2
	call	_ZN4core3ptr40drop_in_place$LT$std..thread..Thread$GT$17hafdaeae0ad5d8e72E
.Ltmp161:
	mv	a0, s0
	call	_ZN4core3ptr80drop_in_place$LT$alloc..sync..Arc$LT$std..thread..Packet$LT$$LP$$RP$$GT$$GT$$GT$17h01d771624af46b67E
.Ltmp162:
	mv	a0, s1
	call	_Unwind_Resume@plt
	unimp	
.LBB11_14:
.Ltmp163:
	call	_ZN4core9panicking19panic_cannot_unwind17h7b6652c0f2f24b81E@plt
	unimp	
.Lfunc_end11:
	.size	_ZN3std6thread19JoinHandle$LT$T$GT$4join17ha20490964f820ddcE, .Lfunc_end11-_ZN3std6thread19JoinHandle$LT$T$GT$4join17ha20490964f820ddcE
	.cfi_endproc
	.section	".gcc_except_table._ZN3std6thread19JoinHandle$LT$T$GT$4join17ha20490964f820ddcE","a",@progbits
	.p2align	2, 0x0
GCC_except_table11:
.Lexception5:
	.byte	255
	.byte	255
	.byte	3
	.uleb128 .Lcst_end5-.Lcst_begin5
.Lcst_begin5:
	.word	.Ltmp156-.Lfunc_begin5
	.word	.Ltmp157-.Ltmp156
	.word	.Ltmp160-.Lfunc_begin5
	.byte	0
	.word	.Ltmp157-.Lfunc_begin5
	.word	.Ltmp158-.Ltmp157
	.word	0
	.byte	0
	.word	.Ltmp158-.Lfunc_begin5
	.word	.Ltmp159-.Ltmp158
	.word	.Ltmp160-.Lfunc_begin5
	.byte	0
	.word	.Ltmp161-.Lfunc_begin5
	.word	.Ltmp162-.Ltmp161
	.word	.Ltmp163-.Lfunc_begin5
	.byte	0
	.word	.Ltmp162-.Lfunc_begin5
	.word	.Lfunc_end11-.Ltmp162
	.word	0
	.byte	0
.Lcst_end5:
	.p2align	2, 0x0

	.section	.text.unlikely._ZN3std9panicking11begin_panic17h6a9167b84fbadd6dE,"ax",@progbits
	.p2align	1
	.type	_ZN3std9panicking11begin_panic17h6a9167b84fbadd6dE,@function
_ZN3std9panicking11begin_panic17h6a9167b84fbadd6dE:
	.cfi_startproc
	addi	sp, sp, -32
	.cfi_def_cfa_offset 32
	sd	ra, 24(sp)
	.cfi_offset ra, -8
	sd	a0, 0(sp)
	sd	a1, 8(sp)
	sd	a2, 16(sp)
	mv	a0, sp
	call	_ZN3std10sys_common9backtrace26__rust_end_short_backtrace17h09bfdb99a25e7095E
	unimp	
.Lfunc_end12:
	.size	_ZN3std9panicking11begin_panic17h6a9167b84fbadd6dE, .Lfunc_end12-_ZN3std9panicking11begin_panic17h6a9167b84fbadd6dE
	.cfi_endproc

	.section	".text._ZN3std9panicking11begin_panic28_$u7b$$u7b$closure$u7d$$u7d$17h1edf837d17bc7f9eE","ax",@progbits
	.p2align	1
	.type	_ZN3std9panicking11begin_panic28_$u7b$$u7b$closure$u7d$$u7d$17h1edf837d17bc7f9eE,@function
_ZN3std9panicking11begin_panic28_$u7b$$u7b$closure$u7d$$u7d$17h1edf837d17bc7f9eE:
	.cfi_startproc
	addi	sp, sp, -32
	.cfi_def_cfa_offset 32
	sd	ra, 24(sp)
	.cfi_offset ra, -8
	ld	a1, 0(a0)
	ld	a2, 8(a0)
	ld	a3, 16(a0)
	sd	a1, 8(sp)
	sd	a2, 16(sp)
.Lpcrel_hi55:
	auipc	a0, %pcrel_hi(.L__unnamed_20)
	addi	a1, a0, %pcrel_lo(.Lpcrel_hi55)
	addi	a0, sp, 8
	li	a4, 1
	li	a2, 0
	call	_ZN3std9panicking20rust_panic_with_hook17h1c182ecda4dba163E@plt
	unimp	
.Lfunc_end13:
	.size	_ZN3std9panicking11begin_panic28_$u7b$$u7b$closure$u7d$$u7d$17h1edf837d17bc7f9eE, .Lfunc_end13-_ZN3std9panicking11begin_panic28_$u7b$$u7b$closure$u7d$$u7d$17h1edf837d17bc7f9eE
	.cfi_endproc

	.section	.text._ZN3std9panicking3try7do_call17h14578127d12f496fE,"ax",@progbits
	.p2align	1
	.type	_ZN3std9panicking3try7do_call17h14578127d12f496fE,@function
_ZN3std9panicking3try7do_call17h14578127d12f496fE:
.Lfunc_begin6:
	.cfi_startproc
	.cfi_personality 155, DW.ref.rust_eh_personality
	.cfi_lsda 27, .Lexception6
	addi	sp, sp, -64
	.cfi_def_cfa_offset 64
	sd	ra, 56(sp)
	sd	s0, 48(sp)
	.cfi_offset ra, -8
	.cfi_offset s0, -16
	ld	a1, 40(a0)
	ld	a2, 0(a0)
	sd	a1, 40(sp)
	ld	a1, 32(a0)
	sd	a1, 32(sp)
	ld	a1, 24(a0)
	sd	a1, 24(sp)
	ld	a1, 16(a0)
	sd	a1, 16(sp)
	ld	a0, 8(a0)
	sd	a0, 8(sp)
	ld	s0, 0(a2)
.Ltmp164:
	mv	a0, s0
	call	_ZN4core3ptr254drop_in_place$LT$tokio..runtime..task..core..Stage$LT$tokio..runtime..blocking..task..BlockingTask$LT$tokio..net..addr..$LT$impl$u20$tokio..net..addr..sealed..ToSocketAddrsPriv$u20$for$u20$str$GT$..to_socket_addrs..$u7b$$u7b$closure$u7d$$u7d$$GT$$GT$$GT$17h9379aedcc40428c3E
.Ltmp165:
	ld	a0, 40(sp)
	sd	a0, 32(s0)
	ld	a0, 32(sp)
	sd	a0, 24(s0)
	ld	a0, 24(sp)
	sd	a0, 16(s0)
	ld	a0, 16(sp)
	sd	a0, 8(s0)
	ld	a0, 8(sp)
	sd	a0, 0(s0)
	ld	ra, 56(sp)
	ld	s0, 48(sp)
	addi	sp, sp, 64
	ret
.LBB14_2:
.Ltmp166:
	ld	a1, 40(sp)
	sd	a1, 32(s0)
	ld	a1, 32(sp)
	sd	a1, 24(s0)
	ld	a1, 24(sp)
	sd	a1, 16(s0)
	ld	a1, 16(sp)
	sd	a1, 8(s0)
	ld	a1, 8(sp)
	sd	a1, 0(s0)
	call	_Unwind_Resume@plt
	unimp	
.Lfunc_end14:
	.size	_ZN3std9panicking3try7do_call17h14578127d12f496fE, .Lfunc_end14-_ZN3std9panicking3try7do_call17h14578127d12f496fE
	.cfi_endproc
	.section	.gcc_except_table._ZN3std9panicking3try7do_call17h14578127d12f496fE,"a",@progbits
	.p2align	2, 0x0
GCC_except_table14:
.Lexception6:
	.byte	255
	.byte	255
	.byte	3
	.uleb128 .Lcst_end6-.Lcst_begin6
.Lcst_begin6:
	.word	.Ltmp164-.Lfunc_begin6
	.word	.Ltmp165-.Ltmp164
	.word	.Ltmp166-.Lfunc_begin6
	.byte	0
	.word	.Ltmp165-.Lfunc_begin6
	.word	.Lfunc_end14-.Ltmp165
	.word	0
	.byte	0
.Lcst_end6:
	.p2align	2, 0x0

	.section	.text._ZN3std9panicking3try7do_call17h1dcf7d2ddcfb3d4dE,"ax",@progbits
	.p2align	1
	.type	_ZN3std9panicking3try7do_call17h1dcf7d2ddcfb3d4dE,@function
_ZN3std9panicking3try7do_call17h1dcf7d2ddcfb3d4dE:
.Lfunc_begin7:
	.cfi_startproc
	.cfi_personality 155, DW.ref.rust_eh_personality
	.cfi_lsda 27, .Lexception7
	addi	sp, sp, -176
	.cfi_def_cfa_offset 176
	sd	ra, 168(sp)
	sd	s0, 160(sp)
	sd	s1, 152(sp)
	sd	s2, 144(sp)
	sd	s3, 136(sp)
	sd	s4, 128(sp)
	sd	s5, 120(sp)
	.cfi_offset ra, -8
	.cfi_offset s0, -16
	.cfi_offset s1, -24
	.cfi_offset s2, -32
	.cfi_offset s3, -40
	.cfi_offset s4, -48
	.cfi_offset s5, -56
	mv	s4, a0
	ld	a0, 0(a0)
	ld	s2, 0(a0)
	ld	a0, 0(s2)
	li	a1, 2
	bne	a0, a1, .LBB15_7
	ld	s5, 16(s2)
	ld	s3, 8(s2)
	sd	zero, 16(s2)
	beqz	s5, .LBB15_8
	ld	s1, 32(s2)
	sd	s1, 72(sp)
	ld	s0, 24(s2)
	sd	s0, 64(sp)
.Lpcrel_hi58:
	auipc	a0, %tls_gd_pcrel_hi(_ZN5tokio4coop7CURRENT7__getit3VAL17h7504a69ab4868670E)
	addi	a0, a0, %pcrel_lo(.Lpcrel_hi58)
	call	__tls_get_addr@plt
	sb	zero, 0(a0)
	sd	s3, 48(sp)
	sd	s5, 56(sp)
	sd	s5, 96(sp)
	sd	s0, 104(sp)
	sh	s1, 112(sp)
.Ltmp169:
	addi	a0, sp, 8
	addi	a1, sp, 96
	call	_ZN78_$LT$$LP$$RF$str$C$u16$RP$$u20$as$u20$std..net..socket_addr..ToSocketAddrs$GT$15to_socket_addrs17h4d38a426ef908336E@plt
.Ltmp170:
	beqz	s3, .LBB15_5
	li	a2, 1
	mv	a0, s5
	mv	a1, s3
	call	__rust_dealloc@plt
.LBB15_5:
	ld	a0, 8(sp)
	ld	a1, 16(sp)
	ld	a2, 24(sp)
	ld	a3, 32(sp)
	sd	a0, 56(sp)
	sd	a1, 64(sp)
	sd	a2, 72(sp)
	sd	a3, 80(sp)
	sd	zero, 48(sp)
.Ltmp172:
	mv	a0, s2
	call	_ZN4core3ptr254drop_in_place$LT$tokio..runtime..task..core..Stage$LT$tokio..runtime..blocking..task..BlockingTask$LT$tokio..net..addr..$LT$impl$u20$tokio..net..addr..sealed..ToSocketAddrsPriv$u20$for$u20$str$GT$..to_socket_addrs..$u7b$$u7b$closure$u7d$$u7d$$GT$$GT$$GT$17h9379aedcc40428c3E
.Ltmp173:
	li	a0, 4
	sd	a0, 0(s2)
	ld	a0, 80(sp)
	sd	a0, 40(sp)
	ld	a1, 72(sp)
	ld	a2, 64(sp)
	ld	a3, 56(sp)
	ld	a4, 48(sp)
	sd	a1, 32(sp)
	sd	a2, 24(sp)
	sd	a3, 16(sp)
	sd	a4, 8(sp)
	sd	a0, 32(s4)
	sd	a1, 24(s4)
	sd	a2, 16(s4)
	sd	a3, 8(s4)
	sd	a4, 0(s4)
	ld	ra, 168(sp)
	ld	s0, 160(sp)
	ld	s1, 152(sp)
	ld	s2, 144(sp)
	ld	s3, 136(sp)
	ld	s4, 128(sp)
	ld	s5, 120(sp)
	addi	sp, sp, 176
	ret
.LBB15_7:
.Lpcrel_hi59:
	auipc	a0, %pcrel_hi(.L__unnamed_21)
	addi	a0, a0, %pcrel_lo(.Lpcrel_hi59)
	sd	a0, 8(sp)
.Lpcrel_hi60:
	auipc	a0, %pcrel_hi(_ZN44_$LT$$RF$T$u20$as$u20$core..fmt..Display$GT$3fmt17h124d4597438c904bE)
	addi	a0, a0, %pcrel_lo(.Lpcrel_hi60)
	sd	a0, 16(sp)
.Lpcrel_hi61:
	auipc	a0, %pcrel_hi(.L__unnamed_22)
	addi	a0, a0, %pcrel_lo(.Lpcrel_hi61)
	sd	a0, 64(sp)
	li	a0, 1
	sd	a0, 72(sp)
	sd	zero, 48(sp)
	addi	a1, sp, 8
	sd	a1, 80(sp)
	sd	a0, 88(sp)
.Ltmp167:
.Lpcrel_hi62:
	auipc	a0, %pcrel_hi(.L__unnamed_23)
	addi	a1, a0, %pcrel_lo(.Lpcrel_hi62)
	addi	a0, sp, 48
	call	_ZN4core9panicking9panic_fmt17h85aa23e09415105eE@plt
.Ltmp168:
	j	.LBB15_9
.LBB15_8:
.Ltmp178:
.Lpcrel_hi56:
	auipc	a0, %pcrel_hi(.L__unnamed_24)
	addi	a0, a0, %pcrel_lo(.Lpcrel_hi56)
.Lpcrel_hi57:
	auipc	a1, %pcrel_hi(.L__unnamed_25)
	addi	a2, a1, %pcrel_lo(.Lpcrel_hi57)
	li	a1, 45
	call	_ZN4core6option13expect_failed17hc3bf5d29c72a8836E@plt
.Ltmp179:
.LBB15_9:
	unimp	
.LBB15_10:
.Ltmp174:
	mv	s0, a0
	li	a0, 4
	sd	a0, 0(s2)
.Ltmp175:
	addi	a0, sp, 48
	call	_ZN4core3ptr176drop_in_place$LT$core..task..poll..Poll$LT$core..result..Result$LT$alloc..vec..into_iter..IntoIter$LT$core..net..socket_addr..SocketAddr$GT$$C$std..io..error..Error$GT$$GT$$GT$17h692e6696bde35792E
.Ltmp176:
	j	.LBB15_14
.LBB15_11:
.Ltmp177:
	call	_ZN4core9panicking19panic_cannot_unwind17h7b6652c0f2f24b81E@plt
	unimp	
.LBB15_12:
.Ltmp171:
	mv	s0, a0
	addi	a0, sp, 48
	call	_ZN4core3ptr161drop_in_place$LT$tokio..net..addr..$LT$impl$u20$tokio..net..addr..sealed..ToSocketAddrsPriv$u20$for$u20$str$GT$..to_socket_addrs..$u7b$$u7b$closure$u7d$$u7d$$GT$17h02bfd01446b56fe5E
	j	.LBB15_14
.LBB15_13:
.Ltmp180:
	mv	s0, a0
.LBB15_14:
.Ltmp181:
	mv	a0, s2
	call	_ZN4core3ptr299drop_in_place$LT$tokio..runtime..task..harness..poll_future..$u7b$$u7b$closure$u7d$$u7d$..Guard$LT$tokio..runtime..blocking..task..BlockingTask$LT$tokio..net..addr..$LT$impl$u20$tokio..net..addr..sealed..ToSocketAddrsPriv$u20$for$u20$str$GT$..to_socket_addrs..$u7b$$u7b$closure$u7d$$u7d$$GT$$GT$$GT$17h18254a80b38a2e71E
.Ltmp182:
	mv	a0, s0
	call	_Unwind_Resume@plt
	unimp	
.LBB15_16:
.Ltmp183:
	call	_ZN4core9panicking19panic_cannot_unwind17h7b6652c0f2f24b81E@plt
	unimp	
.Lfunc_end15:
	.size	_ZN3std9panicking3try7do_call17h1dcf7d2ddcfb3d4dE, .Lfunc_end15-_ZN3std9panicking3try7do_call17h1dcf7d2ddcfb3d4dE
	.cfi_endproc
	.section	.gcc_except_table._ZN3std9panicking3try7do_call17h1dcf7d2ddcfb3d4dE,"a",@progbits
	.p2align	2, 0x0
GCC_except_table15:
.Lexception7:
	.byte	255
	.byte	255
	.byte	3
	.uleb128 .Lcst_end7-.Lcst_begin7
.Lcst_begin7:
	.word	.Lfunc_begin7-.Lfunc_begin7
	.word	.Ltmp169-.Lfunc_begin7
	.word	0
	.byte	0
	.word	.Ltmp169-.Lfunc_begin7
	.word	.Ltmp170-.Ltmp169
	.word	.Ltmp171-.Lfunc_begin7
	.byte	0
	.word	.Ltmp172-.Lfunc_begin7
	.word	.Ltmp173-.Ltmp172
	.word	.Ltmp174-.Lfunc_begin7
	.byte	0
	.word	.Ltmp167-.Lfunc_begin7
	.word	.Ltmp179-.Ltmp167
	.word	.Ltmp180-.Lfunc_begin7
	.byte	0
	.word	.Ltmp175-.Lfunc_begin7
	.word	.Ltmp176-.Ltmp175
	.word	.Ltmp177-.Lfunc_begin7
	.byte	0
	.word	.Ltmp181-.Lfunc_begin7
	.word	.Ltmp182-.Ltmp181
	.word	.Ltmp183-.Lfunc_begin7
	.byte	0
	.word	.Ltmp182-.Lfunc_begin7
	.word	.Lfunc_end15-.Ltmp182
	.word	0
	.byte	0
.Lcst_end7:
	.p2align	2, 0x0

	.section	.text._ZN3std9panicking3try7do_call17h230324136651785bE,"ax",@progbits
	.p2align	1
	.type	_ZN3std9panicking3try7do_call17h230324136651785bE,@function
_ZN3std9panicking3try7do_call17h230324136651785bE:
.Lfunc_begin8:
	.cfi_startproc
	.cfi_personality 155, DW.ref.rust_eh_personality
	.cfi_lsda 27, .Lexception8
	addi	sp, sp, -144
	.cfi_def_cfa_offset 144
	sd	ra, 136(sp)
	sd	s0, 128(sp)
	sd	s1, 120(sp)
	sd	s2, 112(sp)
	sd	s3, 104(sp)
	sd	s4, 96(sp)
	.cfi_offset ra, -8
	.cfi_offset s0, -16
	.cfi_offset s1, -24
	.cfi_offset s2, -32
	.cfi_offset s3, -40
	.cfi_offset s4, -48
	mv	s1, a0
	ld	a0, 0(a0)
	ld	s2, 0(a0)
	ld	a0, 0(s2)
	li	a1, 2
	bne	a0, a1, .LBB16_7
	ld	s3, 8(s2)
	ld	s0, 16(s2)
	ld	s4, 24(s2)
	sd	zero, 16(s2)
	beqz	s0, .LBB16_8
.Lpcrel_hi65:
	auipc	a0, %tls_gd_pcrel_hi(_ZN5tokio4coop7CURRENT7__getit3VAL17h7504a69ab4868670E)
	addi	a0, a0, %pcrel_lo(.Lpcrel_hi65)
	call	__tls_get_addr@plt
	sb	zero, 0(a0)
	sd	s3, 48(sp)
	sd	s0, 56(sp)
	sd	s4, 64(sp)
.Ltmp186:
	addi	a0, sp, 8
	addi	a1, sp, 48
	call	_ZN78_$LT$alloc..string..String$u20$as$u20$std..net..socket_addr..ToSocketAddrs$GT$15to_socket_addrs17hf315b81cb4f49a3bE@plt
.Ltmp187:
	ld	a1, 48(sp)
	beqz	a1, .LBB16_5
	ld	a0, 56(sp)
	li	a2, 1
	call	__rust_dealloc@plt
.LBB16_5:
	ld	a0, 8(sp)
	ld	a1, 16(sp)
	ld	a2, 24(sp)
	ld	a3, 32(sp)
	sd	a0, 56(sp)
	sd	a1, 64(sp)
	sd	a2, 72(sp)
	sd	a3, 80(sp)
	sd	zero, 48(sp)
.Ltmp189:
	mv	a0, s2
	call	_ZN4core3ptr254drop_in_place$LT$tokio..runtime..task..core..Stage$LT$tokio..runtime..blocking..task..BlockingTask$LT$tokio..net..addr..$LT$impl$u20$tokio..net..addr..sealed..ToSocketAddrsPriv$u20$for$u20$str$GT$..to_socket_addrs..$u7b$$u7b$closure$u7d$$u7d$$GT$$GT$$GT$17h9379aedcc40428c3E
.Ltmp190:
	li	a0, 4
	sd	a0, 0(s2)
	ld	a0, 80(sp)
	sd	a0, 40(sp)
	ld	a1, 72(sp)
	ld	a2, 64(sp)
	ld	a3, 56(sp)
	ld	a4, 48(sp)
	sd	a1, 32(sp)
	sd	a2, 24(sp)
	sd	a3, 16(sp)
	sd	a4, 8(sp)
	sd	a0, 32(s1)
	sd	a1, 24(s1)
	sd	a2, 16(s1)
	sd	a3, 8(s1)
	sd	a4, 0(s1)
	ld	ra, 136(sp)
	ld	s0, 128(sp)
	ld	s1, 120(sp)
	ld	s2, 112(sp)
	ld	s3, 104(sp)
	ld	s4, 96(sp)
	addi	sp, sp, 144
	ret
.LBB16_7:
.Lpcrel_hi66:
	auipc	a0, %pcrel_hi(.L__unnamed_21)
	addi	a0, a0, %pcrel_lo(.Lpcrel_hi66)
	sd	a0, 8(sp)
.Lpcrel_hi67:
	auipc	a0, %pcrel_hi(_ZN44_$LT$$RF$T$u20$as$u20$core..fmt..Display$GT$3fmt17h124d4597438c904bE)
	addi	a0, a0, %pcrel_lo(.Lpcrel_hi67)
	sd	a0, 16(sp)
.Lpcrel_hi68:
	auipc	a0, %pcrel_hi(.L__unnamed_22)
	addi	a0, a0, %pcrel_lo(.Lpcrel_hi68)
	sd	a0, 64(sp)
	li	a0, 1
	sd	a0, 72(sp)
	sd	zero, 48(sp)
	addi	a1, sp, 8
	sd	a1, 80(sp)
	sd	a0, 88(sp)
.Ltmp184:
.Lpcrel_hi69:
	auipc	a0, %pcrel_hi(.L__unnamed_23)
	addi	a1, a0, %pcrel_lo(.Lpcrel_hi69)
	addi	a0, sp, 48
	call	_ZN4core9panicking9panic_fmt17h85aa23e09415105eE@plt
.Ltmp185:
	j	.LBB16_9
.LBB16_8:
.Ltmp195:
.Lpcrel_hi63:
	auipc	a0, %pcrel_hi(.L__unnamed_24)
	addi	a0, a0, %pcrel_lo(.Lpcrel_hi63)
.Lpcrel_hi64:
	auipc	a1, %pcrel_hi(.L__unnamed_25)
	addi	a2, a1, %pcrel_lo(.Lpcrel_hi64)
	li	a1, 45
	call	_ZN4core6option13expect_failed17hc3bf5d29c72a8836E@plt
.Ltmp196:
.LBB16_9:
	unimp	
.LBB16_10:
.Ltmp191:
	mv	s1, a0
	li	a0, 4
	sd	a0, 0(s2)
.Ltmp192:
	addi	a0, sp, 48
	call	_ZN4core3ptr176drop_in_place$LT$core..task..poll..Poll$LT$core..result..Result$LT$alloc..vec..into_iter..IntoIter$LT$core..net..socket_addr..SocketAddr$GT$$C$std..io..error..Error$GT$$GT$$GT$17h692e6696bde35792E
.Ltmp193:
	j	.LBB16_14
.LBB16_11:
.Ltmp194:
	call	_ZN4core9panicking19panic_cannot_unwind17h7b6652c0f2f24b81E@plt
	unimp	
.LBB16_12:
.Ltmp188:
	mv	s1, a0
	addi	a0, sp, 48
	call	_ZN4core3ptr161drop_in_place$LT$tokio..net..addr..$LT$impl$u20$tokio..net..addr..sealed..ToSocketAddrsPriv$u20$for$u20$str$GT$..to_socket_addrs..$u7b$$u7b$closure$u7d$$u7d$$GT$17h02bfd01446b56fe5E
	j	.LBB16_14
.LBB16_13:
.Ltmp197:
	mv	s1, a0
.LBB16_14:
.Ltmp198:
	mv	a0, s2
	call	_ZN4core3ptr299drop_in_place$LT$tokio..runtime..task..harness..poll_future..$u7b$$u7b$closure$u7d$$u7d$..Guard$LT$tokio..runtime..blocking..task..BlockingTask$LT$tokio..net..addr..$LT$impl$u20$tokio..net..addr..sealed..ToSocketAddrsPriv$u20$for$u20$str$GT$..to_socket_addrs..$u7b$$u7b$closure$u7d$$u7d$$GT$$GT$$GT$17h18254a80b38a2e71E
.Ltmp199:
	mv	a0, s1
	call	_Unwind_Resume@plt
	unimp	
.LBB16_16:
.Ltmp200:
	call	_ZN4core9panicking19panic_cannot_unwind17h7b6652c0f2f24b81E@plt
	unimp	
.Lfunc_end16:
	.size	_ZN3std9panicking3try7do_call17h230324136651785bE, .Lfunc_end16-_ZN3std9panicking3try7do_call17h230324136651785bE
	.cfi_endproc
	.section	.gcc_except_table._ZN3std9panicking3try7do_call17h230324136651785bE,"a",@progbits
	.p2align	2, 0x0
GCC_except_table16:
.Lexception8:
	.byte	255
	.byte	255
	.byte	3
	.uleb128 .Lcst_end8-.Lcst_begin8
.Lcst_begin8:
	.word	.Lfunc_begin8-.Lfunc_begin8
	.word	.Ltmp186-.Lfunc_begin8
	.word	0
	.byte	0
	.word	.Ltmp186-.Lfunc_begin8
	.word	.Ltmp187-.Ltmp186
	.word	.Ltmp188-.Lfunc_begin8
	.byte	0
	.word	.Ltmp189-.Lfunc_begin8
	.word	.Ltmp190-.Ltmp189
	.word	.Ltmp191-.Lfunc_begin8
	.byte	0
	.word	.Ltmp184-.Lfunc_begin8
	.word	.Ltmp196-.Ltmp184
	.word	.Ltmp197-.Lfunc_begin8
	.byte	0
	.word	.Ltmp192-.Lfunc_begin8
	.word	.Ltmp193-.Ltmp192
	.word	.Ltmp194-.Lfunc_begin8
	.byte	0
	.word	.Ltmp198-.Lfunc_begin8
	.word	.Ltmp199-.Ltmp198
	.word	.Ltmp200-.Lfunc_begin8
	.byte	0
	.word	.Ltmp199-.Lfunc_begin8
	.word	.Lfunc_end16-.Ltmp199
	.word	0
	.byte	0
.Lcst_end8:
	.p2align	2, 0x0

	.section	.text._ZN3std9panicking3try7do_call17h358e6ccf5fffca07E,"ax",@progbits
	.p2align	1
	.type	_ZN3std9panicking3try7do_call17h358e6ccf5fffca07E,@function
_ZN3std9panicking3try7do_call17h358e6ccf5fffca07E:
	.cfi_startproc
	ld	a0, 0(a0)
	ld	a1, 0(a0)
	ld	a2, 0(a1)
	ld	a0, 8(a1)
	sd	zero, 0(a1)
	li	a3, 2
	sb	a3, 16(a1)
	beqz	a2, .LBB17_2
	tail	_ZN4core3ptr97drop_in_place$LT$core..option..Option$LT$alloc..rc..Rc$LT$tokio..task..local..Context$GT$$GT$$GT$17h93d2629e808133a2E
.LBB17_2:
	ret
.Lfunc_end17:
	.size	_ZN3std9panicking3try7do_call17h358e6ccf5fffca07E, .Lfunc_end17-_ZN3std9panicking3try7do_call17h358e6ccf5fffca07E
	.cfi_endproc

	.section	.text._ZN3std9panicking3try7do_call17h36ce743056e69036E,"ax",@progbits
	.p2align	1
	.type	_ZN3std9panicking3try7do_call17h36ce743056e69036E,@function
_ZN3std9panicking3try7do_call17h36ce743056e69036E:
.Lfunc_begin9:
	.cfi_startproc
	.cfi_personality 155, DW.ref.rust_eh_personality
	.cfi_lsda 27, .Lexception9
	addi	sp, sp, -16
	.cfi_def_cfa_offset 16
	sd	ra, 8(sp)
	sd	s0, 0(sp)
	.cfi_offset ra, -8
	.cfi_offset s0, -16
	ld	a0, 0(a0)
	ld	a0, 0(a0)
	addi	s0, a0, 32
.Ltmp201:
	mv	a0, s0
	call	_ZN4core3ptr254drop_in_place$LT$tokio..runtime..task..core..Stage$LT$tokio..runtime..blocking..task..BlockingTask$LT$tokio..net..addr..$LT$impl$u20$tokio..net..addr..sealed..ToSocketAddrsPriv$u20$for$u20$str$GT$..to_socket_addrs..$u7b$$u7b$closure$u7d$$u7d$$GT$$GT$$GT$17h9379aedcc40428c3E
.Ltmp202:
	li	a0, 4
	sd	a0, 0(s0)
	ld	ra, 8(sp)
	ld	s0, 0(sp)
	addi	sp, sp, 16
	ret
.LBB18_2:
.Ltmp203:
	li	a1, 4
	sd	a1, 0(s0)
	call	_Unwind_Resume@plt
	unimp	
.Lfunc_end18:
	.size	_ZN3std9panicking3try7do_call17h36ce743056e69036E, .Lfunc_end18-_ZN3std9panicking3try7do_call17h36ce743056e69036E
	.cfi_endproc
	.section	.gcc_except_table._ZN3std9panicking3try7do_call17h36ce743056e69036E,"a",@progbits
	.p2align	2, 0x0
GCC_except_table18:
.Lexception9:
	.byte	255
	.byte	255
	.byte	3
	.uleb128 .Lcst_end9-.Lcst_begin9
.Lcst_begin9:
	.word	.Ltmp201-.Lfunc_begin9
	.word	.Ltmp202-.Ltmp201
	.word	.Ltmp203-.Lfunc_begin9
	.byte	0
	.word	.Ltmp202-.Lfunc_begin9
	.word	.Lfunc_end18-.Ltmp202
	.word	0
	.byte	0
.Lcst_end9:
	.p2align	2, 0x0

	.section	.text._ZN3std9panicking3try7do_call17h3ff6691b09ba8009E,"ax",@progbits
	.p2align	1
	.type	_ZN3std9panicking3try7do_call17h3ff6691b09ba8009E,@function
_ZN3std9panicking3try7do_call17h3ff6691b09ba8009E:
.Lfunc_begin10:
	.cfi_startproc
	.cfi_personality 155, DW.ref.rust_eh_personality
	.cfi_lsda 27, .Lexception10
	addi	sp, sp, -48
	.cfi_def_cfa_offset 48
	sd	ra, 40(sp)
	sd	s0, 32(sp)
	.cfi_offset ra, -8
	.cfi_offset s0, -16
	ld	a1, 24(a0)
	sd	a1, 24(sp)
	ld	a1, 16(a0)
	sd	a1, 16(sp)
	ld	a1, 8(a0)
	sd	a1, 8(sp)
	ld	a1, 0(a0)
	sd	a1, 0(sp)
	ld	a0, 32(a0)
	ld	s0, 0(a0)
.Ltmp204:
	mv	a0, s0
	call	_ZN4core3ptr206drop_in_place$LT$tokio..runtime..task..core..Stage$LT$tokio..runtime..blocking..task..BlockingTask$LT$tokio..runtime..scheduler..multi_thread..worker..Launch..launch..$u7b$$u7b$closure$u7d$$u7d$$GT$$GT$$GT$17he0868cf9c20abd28E
.Ltmp205:
	ld	a0, 24(sp)
	sd	a0, 24(s0)
	ld	a0, 16(sp)
	sd	a0, 16(s0)
	ld	a0, 8(sp)
	sd	a0, 8(s0)
	ld	a0, 0(sp)
	sd	a0, 0(s0)
	ld	ra, 40(sp)
	ld	s0, 32(sp)
	addi	sp, sp, 48
	ret
.LBB19_2:
.Ltmp206:
	ld	a1, 24(sp)
	sd	a1, 24(s0)
	ld	a1, 16(sp)
	sd	a1, 16(s0)
	ld	a1, 8(sp)
	sd	a1, 8(s0)
	ld	a1, 0(sp)
	sd	a1, 0(s0)
	call	_Unwind_Resume@plt
	unimp	
.Lfunc_end19:
	.size	_ZN3std9panicking3try7do_call17h3ff6691b09ba8009E, .Lfunc_end19-_ZN3std9panicking3try7do_call17h3ff6691b09ba8009E
	.cfi_endproc
	.section	.gcc_except_table._ZN3std9panicking3try7do_call17h3ff6691b09ba8009E,"a",@progbits
	.p2align	2, 0x0
GCC_except_table19:
.Lexception10:
	.byte	255
	.byte	255
	.byte	3
	.uleb128 .Lcst_end10-.Lcst_begin10
.Lcst_begin10:
	.word	.Ltmp204-.Lfunc_begin10
	.word	.Ltmp205-.Ltmp204
	.word	.Ltmp206-.Lfunc_begin10
	.byte	0
	.word	.Ltmp205-.Lfunc_begin10
	.word	.Lfunc_end19-.Ltmp205
	.word	0
	.byte	0
.Lcst_end10:
	.p2align	2, 0x0

	.section	.text._ZN3std9panicking3try7do_call17h4a13730937c74f3bE,"ax",@progbits
	.p2align	1
	.type	_ZN3std9panicking3try7do_call17h4a13730937c74f3bE,@function
_ZN3std9panicking3try7do_call17h4a13730937c74f3bE:
.Lfunc_begin11:
	.cfi_startproc
	.cfi_personality 155, DW.ref.rust_eh_personality
	.cfi_lsda 27, .Lexception11
	addi	sp, sp, -16
	.cfi_def_cfa_offset 16
	sd	ra, 8(sp)
	sd	s0, 0(sp)
	.cfi_offset ra, -8
	.cfi_offset s0, -16
	ld	a0, 0(a0)
	ld	s0, 0(a0)
.Ltmp207:
	mv	a0, s0
	call	_ZN4core3ptr206drop_in_place$LT$tokio..runtime..task..core..Stage$LT$tokio..runtime..blocking..task..BlockingTask$LT$tokio..runtime..scheduler..multi_thread..worker..Launch..launch..$u7b$$u7b$closure$u7d$$u7d$$GT$$GT$$GT$17he0868cf9c20abd28E
.Ltmp208:
	li	a0, 4
	sd	a0, 0(s0)
	ld	ra, 8(sp)
	ld	s0, 0(sp)
	addi	sp, sp, 16
	ret
.LBB20_2:
.Ltmp209:
	li	a1, 4
	sd	a1, 0(s0)
	call	_Unwind_Resume@plt
	unimp	
.Lfunc_end20:
	.size	_ZN3std9panicking3try7do_call17h4a13730937c74f3bE, .Lfunc_end20-_ZN3std9panicking3try7do_call17h4a13730937c74f3bE
	.cfi_endproc
	.section	.gcc_except_table._ZN3std9panicking3try7do_call17h4a13730937c74f3bE,"a",@progbits
	.p2align	2, 0x0
GCC_except_table20:
.Lexception11:
	.byte	255
	.byte	255
	.byte	3
	.uleb128 .Lcst_end11-.Lcst_begin11
.Lcst_begin11:
	.word	.Ltmp207-.Lfunc_begin11
	.word	.Ltmp208-.Ltmp207
	.word	.Ltmp209-.Lfunc_begin11
	.byte	0
	.word	.Ltmp208-.Lfunc_begin11
	.word	.Lfunc_end20-.Ltmp208
	.word	0
	.byte	0
.Lcst_end11:
	.p2align	2, 0x0

	.section	.text._ZN3std9panicking3try7do_call17h5c306382f7d73ba0E,"ax",@progbits
	.p2align	1
	.type	_ZN3std9panicking3try7do_call17h5c306382f7d73ba0E,@function
_ZN3std9panicking3try7do_call17h5c306382f7d73ba0E:
.Lfunc_begin12:
	.cfi_startproc
	.cfi_personality 155, DW.ref.rust_eh_personality
	.cfi_lsda 27, .Lexception12
	addi	sp, sp, -16
	.cfi_def_cfa_offset 16
	sd	ra, 8(sp)
	sd	s0, 0(sp)
	.cfi_offset ra, -8
	.cfi_offset s0, -16
	ld	a0, 0(a0)
	ld	s0, 0(a0)
.Ltmp210:
	mv	a0, s0
	call	_ZN4core3ptr254drop_in_place$LT$tokio..runtime..task..core..Stage$LT$tokio..runtime..blocking..task..BlockingTask$LT$tokio..net..addr..$LT$impl$u20$tokio..net..addr..sealed..ToSocketAddrsPriv$u20$for$u20$str$GT$..to_socket_addrs..$u7b$$u7b$closure$u7d$$u7d$$GT$$GT$$GT$17h9379aedcc40428c3E
.Ltmp211:
	li	a0, 4
	sd	a0, 0(s0)
	ld	ra, 8(sp)
	ld	s0, 0(sp)
	addi	sp, sp, 16
	ret
.LBB21_2:
.Ltmp212:
	li	a1, 4
	sd	a1, 0(s0)
	call	_Unwind_Resume@plt
	unimp	
.Lfunc_end21:
	.size	_ZN3std9panicking3try7do_call17h5c306382f7d73ba0E, .Lfunc_end21-_ZN3std9panicking3try7do_call17h5c306382f7d73ba0E
	.cfi_endproc
	.section	.gcc_except_table._ZN3std9panicking3try7do_call17h5c306382f7d73ba0E,"a",@progbits
	.p2align	2, 0x0
GCC_except_table21:
.Lexception12:
	.byte	255
	.byte	255
	.byte	3
	.uleb128 .Lcst_end12-.Lcst_begin12
.Lcst_begin12:
	.word	.Ltmp210-.Lfunc_begin12
	.word	.Ltmp211-.Ltmp210
	.word	.Ltmp212-.Lfunc_begin12
	.byte	0
	.word	.Ltmp211-.Lfunc_begin12
	.word	.Lfunc_end21-.Ltmp211
	.word	0
	.byte	0
.Lcst_end12:
	.p2align	2, 0x0

	.section	.text._ZN3std9panicking3try7do_call17h5e093bca545f5b40E,"ax",@progbits
	.p2align	1
	.type	_ZN3std9panicking3try7do_call17h5e093bca545f5b40E,@function
_ZN3std9panicking3try7do_call17h5e093bca545f5b40E:
	.cfi_startproc
	addi	sp, sp, -16
	.cfi_def_cfa_offset 16
	sd	ra, 8(sp)
	sd	s0, 0(sp)
	.cfi_offset ra, -8
	.cfi_offset s0, -16
	mv	s0, a0
	ld	a0, 0(a0)
	ld	a1, 8(a0)
	ld	a0, 0(a0)
	ld	a1, 0(a1)
	jalr	a1
	sd	a0, 0(s0)
	sd	a1, 8(s0)
	ld	ra, 8(sp)
	ld	s0, 0(sp)
	addi	sp, sp, 16
	ret
.Lfunc_end22:
	.size	_ZN3std9panicking3try7do_call17h5e093bca545f5b40E, .Lfunc_end22-_ZN3std9panicking3try7do_call17h5e093bca545f5b40E
	.cfi_endproc

	.section	.text._ZN3std9panicking3try7do_call17h5f6bfcba09b2409bE,"ax",@progbits
	.p2align	1
	.type	_ZN3std9panicking3try7do_call17h5f6bfcba09b2409bE,@function
_ZN3std9panicking3try7do_call17h5f6bfcba09b2409bE:
.Lfunc_begin13:
	.cfi_startproc
	.cfi_personality 155, DW.ref.rust_eh_personality
	.cfi_lsda 27, .Lexception13
	addi	sp, sp, -16
	.cfi_def_cfa_offset 16
	sd	ra, 8(sp)
	sd	s0, 0(sp)
	.cfi_offset ra, -8
	.cfi_offset s0, -16
	ld	a1, 0(a0)
	ld	a0, 8(a0)
	ld	a1, 0(a1)
	ld	a0, 0(a0)
	andi	a2, a1, 8
	bnez	a2, .LBB23_3
	addi	s0, a0, 32
.Ltmp213:
	mv	a0, s0
	call	_ZN4core3ptr254drop_in_place$LT$tokio..runtime..task..core..Stage$LT$tokio..runtime..blocking..task..BlockingTask$LT$tokio..net..addr..$LT$impl$u20$tokio..net..addr..sealed..ToSocketAddrsPriv$u20$for$u20$str$GT$..to_socket_addrs..$u7b$$u7b$closure$u7d$$u7d$$GT$$GT$$GT$17h9379aedcc40428c3E
.Ltmp214:
	li	a0, 4
	sd	a0, 0(s0)
	j	.LBB23_4
.LBB23_3:
	andi	a1, a1, 16
	bnez	a1, .LBB23_5
.LBB23_4:
	ld	ra, 8(sp)
	ld	s0, 0(sp)
	addi	sp, sp, 16
	ret
.LBB23_5:
	ld	a1, 104(a0)
	beqz	a1, .LBB23_7
	ld	a5, 16(a1)
	ld	a0, 96(a0)
	ld	ra, 8(sp)
	ld	s0, 0(sp)
	addi	sp, sp, 16
	jr	a5
.LBB23_7:
.Lpcrel_hi70:
	auipc	a0, %pcrel_hi(.L__unnamed_26)
	addi	a0, a0, %pcrel_lo(.Lpcrel_hi70)
.Lpcrel_hi71:
	auipc	a1, %pcrel_hi(.L__unnamed_27)
	addi	a2, a1, %pcrel_lo(.Lpcrel_hi71)
	li	a1, 13
	call	_ZN3std9panicking11begin_panic17h6a9167b84fbadd6dE
	unimp	
.LBB23_8:
.Ltmp215:
	li	a1, 4
	sd	a1, 0(s0)
	call	_Unwind_Resume@plt
	unimp	
.Lfunc_end23:
	.size	_ZN3std9panicking3try7do_call17h5f6bfcba09b2409bE, .Lfunc_end23-_ZN3std9panicking3try7do_call17h5f6bfcba09b2409bE
	.cfi_endproc
	.section	.gcc_except_table._ZN3std9panicking3try7do_call17h5f6bfcba09b2409bE,"a",@progbits
	.p2align	2, 0x0
GCC_except_table23:
.Lexception13:
	.byte	255
	.byte	255
	.byte	3
	.uleb128 .Lcst_end13-.Lcst_begin13
.Lcst_begin13:
	.word	.Ltmp213-.Lfunc_begin13
	.word	.Ltmp214-.Ltmp213
	.word	.Ltmp215-.Lfunc_begin13
	.byte	0
	.word	.Ltmp214-.Lfunc_begin13
	.word	.Lfunc_end23-.Ltmp214
	.word	0
	.byte	0
.Lcst_end13:
	.p2align	2, 0x0

	.section	.text._ZN3std9panicking3try7do_call17h96d4378ff96e045dE,"ax",@progbits
	.p2align	1
	.type	_ZN3std9panicking3try7do_call17h96d4378ff96e045dE,@function
_ZN3std9panicking3try7do_call17h96d4378ff96e045dE:
	.cfi_startproc
	ld	a1, 8(a0)
	ld	a0, 0(a0)
	ld	a5, 8(a1)
	jr	a5
.Lfunc_end24:
	.size	_ZN3std9panicking3try7do_call17h96d4378ff96e045dE, .Lfunc_end24-_ZN3std9panicking3try7do_call17h96d4378ff96e045dE
	.cfi_endproc

	.section	.text._ZN3std9panicking3try7do_call17hb5631a00ea742448E,"ax",@progbits
	.p2align	1
	.type	_ZN3std9panicking3try7do_call17hb5631a00ea742448E,@function
_ZN3std9panicking3try7do_call17hb5631a00ea742448E:
.Lfunc_begin14:
	.cfi_startproc
	.cfi_personality 155, DW.ref.rust_eh_personality
	.cfi_lsda 27, .Lexception14
	addi	sp, sp, -32
	.cfi_def_cfa_offset 32
	sd	ra, 24(sp)
	sd	s0, 16(sp)
	sd	s1, 8(sp)
	sd	s2, 0(sp)
	.cfi_offset ra, -8
	.cfi_offset s0, -16
	.cfi_offset s1, -24
	.cfi_offset s2, -32
	ld	s1, 0(a0)
	ld	a0, 0(s1)
	beqz	a0, .LBB25_5
	ld	s0, 8(s1)
	beqz	s0, .LBB25_5
	ld	s2, 16(s1)
	ld	a1, 0(s2)
.Ltmp216:
	mv	a0, s0
	jalr	a1
.Ltmp217:
	ld	a1, 8(s2)
	beqz	a1, .LBB25_5
	ld	a2, 16(s2)
	mv	a0, s0
	call	__rust_dealloc@plt
.LBB25_5:
	sd	zero, 0(s1)
	ld	ra, 24(sp)
	ld	s0, 16(sp)
	ld	s1, 8(sp)
	ld	s2, 0(sp)
	addi	sp, sp, 32
	ret
.LBB25_6:
.Ltmp218:
	ld	a1, 8(s2)
	ld	a2, 16(s2)
	mv	s2, a0
	mv	a0, s0
	call	_ZN5alloc5alloc8box_free17hab3460fb52d5dd94E
	sd	zero, 0(s1)
	mv	a0, s2
	call	_Unwind_Resume@plt
	unimp	
.Lfunc_end25:
	.size	_ZN3std9panicking3try7do_call17hb5631a00ea742448E, .Lfunc_end25-_ZN3std9panicking3try7do_call17hb5631a00ea742448E
	.cfi_endproc
	.section	.gcc_except_table._ZN3std9panicking3try7do_call17hb5631a00ea742448E,"a",@progbits
	.p2align	2, 0x0
GCC_except_table25:
.Lexception14:
	.byte	255
	.byte	255
	.byte	3
	.uleb128 .Lcst_end14-.Lcst_begin14
.Lcst_begin14:
	.word	.Ltmp216-.Lfunc_begin14
	.word	.Ltmp217-.Ltmp216
	.word	.Ltmp218-.Lfunc_begin14
	.byte	0
	.word	.Ltmp217-.Lfunc_begin14
	.word	.Lfunc_end25-.Ltmp217
	.word	0
	.byte	0
.Lcst_end14:
	.p2align	2, 0x0

	.section	.text._ZN3std9panicking3try7do_call17hbf2a772d9d479212E,"ax",@progbits
	.p2align	1
	.type	_ZN3std9panicking3try7do_call17hbf2a772d9d479212E,@function
_ZN3std9panicking3try7do_call17hbf2a772d9d479212E:
.Lfunc_begin15:
	.cfi_startproc
	.cfi_personality 155, DW.ref.rust_eh_personality
	.cfi_lsda 27, .Lexception15
	addi	sp, sp, -16
	.cfi_def_cfa_offset 16
	sd	ra, 8(sp)
	sd	s0, 0(sp)
	.cfi_offset ra, -8
	.cfi_offset s0, -16
	ld	a0, 0(a0)
	ld	a0, 0(a0)
	addi	s0, a0, 32
.Ltmp219:
	mv	a0, s0
	call	_ZN4core3ptr206drop_in_place$LT$tokio..runtime..task..core..Stage$LT$tokio..runtime..blocking..task..BlockingTask$LT$tokio..runtime..scheduler..multi_thread..worker..Launch..launch..$u7b$$u7b$closure$u7d$$u7d$$GT$$GT$$GT$17he0868cf9c20abd28E
.Ltmp220:
	li	a0, 4
	sd	a0, 0(s0)
	ld	ra, 8(sp)
	ld	s0, 0(sp)
	addi	sp, sp, 16
	ret
.LBB26_2:
.Ltmp221:
	li	a1, 4
	sd	a1, 0(s0)
	call	_Unwind_Resume@plt
	unimp	
.Lfunc_end26:
	.size	_ZN3std9panicking3try7do_call17hbf2a772d9d479212E, .Lfunc_end26-_ZN3std9panicking3try7do_call17hbf2a772d9d479212E
	.cfi_endproc
	.section	.gcc_except_table._ZN3std9panicking3try7do_call17hbf2a772d9d479212E,"a",@progbits
	.p2align	2, 0x0
GCC_except_table26:
.Lexception15:
	.byte	255
	.byte	255
	.byte	3
	.uleb128 .Lcst_end15-.Lcst_begin15
.Lcst_begin15:
	.word	.Ltmp219-.Lfunc_begin15
	.word	.Ltmp220-.Ltmp219
	.word	.Ltmp221-.Lfunc_begin15
	.byte	0
	.word	.Ltmp220-.Lfunc_begin15
	.word	.Lfunc_end26-.Ltmp220
	.word	0
	.byte	0
.Lcst_end15:
	.p2align	2, 0x0

	.section	.text._ZN3std9panicking3try7do_call17hc2f919a405ec36a2E,"ax",@progbits
	.p2align	1
	.type	_ZN3std9panicking3try7do_call17hc2f919a405ec36a2E,@function
_ZN3std9panicking3try7do_call17hc2f919a405ec36a2E:
	.cfi_startproc
	ld	a0, 0(a0)
	ld	a1, 0(a0)
	ld	a0, 0(a1)
	sd	zero, 0(a1)
	li	a2, 2
	sb	a2, 8(a1)
	beqz	a0, .LBB27_3
	li	a1, 1
	neg	a2, a1
	amoadd.d.rl	a2, a2, (a0)
	bne	a2, a1, .LBB27_3
	fence	r, rw
	tail	_ZN5alloc4sync12Arc$LT$T$GT$9drop_slow17he8d26611fb527376E
.LBB27_3:
	ret
.Lfunc_end27:
	.size	_ZN3std9panicking3try7do_call17hc2f919a405ec36a2E, .Lfunc_end27-_ZN3std9panicking3try7do_call17hc2f919a405ec36a2E
	.cfi_endproc

	.section	.text._ZN3std9panicking3try7do_call17he6ed0cbe050f6dabE,"ax",@progbits
	.p2align	1
	.type	_ZN3std9panicking3try7do_call17he6ed0cbe050f6dabE,@function
_ZN3std9panicking3try7do_call17he6ed0cbe050f6dabE:
	.cfi_startproc
	ld	a1, 8(a0)
	beqz	a1, .LBB28_2
	ld	a0, 0(a0)
	ld	a5, 24(a1)
	jr	a5
.LBB28_2:
	ret
.Lfunc_end28:
	.size	_ZN3std9panicking3try7do_call17he6ed0cbe050f6dabE, .Lfunc_end28-_ZN3std9panicking3try7do_call17he6ed0cbe050f6dabE
	.cfi_endproc

	.section	.text._ZN3std9panicking3try7do_call17hedce9263a2ff3ac9E,"ax",@progbits
	.p2align	1
	.type	_ZN3std9panicking3try7do_call17hedce9263a2ff3ac9E,@function
_ZN3std9panicking3try7do_call17hedce9263a2ff3ac9E:
	.cfi_startproc
	addi	sp, sp, -48
	.cfi_def_cfa_offset 48
	sd	ra, 40(sp)
	.cfi_offset ra, -8
	ld	a1, 24(a0)
	sd	a1, 32(sp)
	ld	a1, 16(a0)
	sd	a1, 24(sp)
	ld	a1, 8(a0)
	sd	a1, 16(sp)
	ld	a0, 0(a0)
	sd	a0, 8(sp)
	addi	a0, sp, 8
	call	_ZN3std10sys_common9backtrace28__rust_begin_short_backtrace17h58c07a4292c6ae6cE
	ld	ra, 40(sp)
	addi	sp, sp, 48
	ret
.Lfunc_end29:
	.size	_ZN3std9panicking3try7do_call17hedce9263a2ff3ac9E, .Lfunc_end29-_ZN3std9panicking3try7do_call17hedce9263a2ff3ac9E
	.cfi_endproc

	.section	.text._ZN3std9panicking3try7do_call17hfbf3ce6d421a593dE,"ax",@progbits
	.p2align	1
	.type	_ZN3std9panicking3try7do_call17hfbf3ce6d421a593dE,@function
_ZN3std9panicking3try7do_call17hfbf3ce6d421a593dE:
.Lfunc_begin16:
	.cfi_startproc
	.cfi_personality 155, DW.ref.rust_eh_personality
	.cfi_lsda 27, .Lexception16
	addi	sp, sp, -16
	.cfi_def_cfa_offset 16
	sd	ra, 8(sp)
	sd	s0, 0(sp)
	.cfi_offset ra, -8
	.cfi_offset s0, -16
	ld	a1, 0(a0)
	ld	a0, 8(a0)
	ld	a1, 0(a1)
	ld	a0, 0(a0)
	andi	a2, a1, 8
	bnez	a2, .LBB30_3
	addi	s0, a0, 32
.Ltmp222:
	mv	a0, s0
	call	_ZN4core3ptr206drop_in_place$LT$tokio..runtime..task..core..Stage$LT$tokio..runtime..blocking..task..BlockingTask$LT$tokio..runtime..scheduler..multi_thread..worker..Launch..launch..$u7b$$u7b$closure$u7d$$u7d$$GT$$GT$$GT$17he0868cf9c20abd28E
.Ltmp223:
	li	a0, 4
	sd	a0, 0(s0)
	j	.LBB30_4
.LBB30_3:
	andi	a1, a1, 16
	bnez	a1, .LBB30_5
.LBB30_4:
	ld	ra, 8(sp)
	ld	s0, 0(sp)
	addi	sp, sp, 16
	ret
.LBB30_5:
	ld	a1, 96(a0)
	beqz	a1, .LBB30_7
	ld	a5, 16(a1)
	ld	a0, 88(a0)
	ld	ra, 8(sp)
	ld	s0, 0(sp)
	addi	sp, sp, 16
	jr	a5
.LBB30_7:
.Lpcrel_hi72:
	auipc	a0, %pcrel_hi(.L__unnamed_26)
	addi	a0, a0, %pcrel_lo(.Lpcrel_hi72)
.Lpcrel_hi73:
	auipc	a1, %pcrel_hi(.L__unnamed_27)
	addi	a2, a1, %pcrel_lo(.Lpcrel_hi73)
	li	a1, 13
	call	_ZN3std9panicking11begin_panic17h6a9167b84fbadd6dE
	unimp	
.LBB30_8:
.Ltmp224:
	li	a1, 4
	sd	a1, 0(s0)
	call	_Unwind_Resume@plt
	unimp	
.Lfunc_end30:
	.size	_ZN3std9panicking3try7do_call17hfbf3ce6d421a593dE, .Lfunc_end30-_ZN3std9panicking3try7do_call17hfbf3ce6d421a593dE
	.cfi_endproc
	.section	.gcc_except_table._ZN3std9panicking3try7do_call17hfbf3ce6d421a593dE,"a",@progbits
	.p2align	2, 0x0
GCC_except_table30:
.Lexception16:
	.byte	255
	.byte	255
	.byte	3
	.uleb128 .Lcst_end16-.Lcst_begin16
.Lcst_begin16:
	.word	.Ltmp222-.Lfunc_begin16
	.word	.Ltmp223-.Ltmp222
	.word	.Ltmp224-.Lfunc_begin16
	.byte	0
	.word	.Ltmp223-.Lfunc_begin16
	.word	.Lfunc_end30-.Ltmp223
	.word	0
	.byte	0
.Lcst_end16:
	.p2align	2, 0x0

	.section	.text._ZN3std9panicking3try7do_call17hfc39a9a70de5171aE,"ax",@progbits
	.p2align	1
	.type	_ZN3std9panicking3try7do_call17hfc39a9a70de5171aE,@function
_ZN3std9panicking3try7do_call17hfc39a9a70de5171aE:
.Lfunc_begin17:
	.cfi_startproc
	.cfi_personality 155, DW.ref.rust_eh_personality
	.cfi_lsda 27, .Lexception17
	addi	sp, sp, -96
	.cfi_def_cfa_offset 96
	sd	ra, 88(sp)
	sd	s0, 80(sp)
	sd	s1, 72(sp)
	sd	s2, 64(sp)
	.cfi_offset ra, -8
	.cfi_offset s0, -16
	.cfi_offset s1, -24
	.cfi_offset s2, -32
	mv	s2, a0
	ld	a0, 0(a0)
	ld	s0, 0(a0)
	ld	a0, 0(s0)
	li	a1, 2
	bne	a0, a1, .LBB31_5
	ld	s1, 8(s0)
	sd	zero, 8(s0)
	beqz	s1, .LBB31_6
.Lpcrel_hi80:
	auipc	a0, %tls_gd_pcrel_hi(_ZN5tokio4coop7CURRENT7__getit3VAL17h7504a69ab4868670E)
	addi	a0, a0, %pcrel_lo(.Lpcrel_hi80)
	call	__tls_get_addr@plt
	sb	zero, 0(a0)
.Ltmp227:
	mv	a0, s1
	call	_ZN5tokio7runtime9scheduler12multi_thread6worker3run17he6fffe67b949276cE@plt
.Ltmp228:
.Ltmp229:
	mv	a0, s0
	call	_ZN4core3ptr206drop_in_place$LT$tokio..runtime..task..core..Stage$LT$tokio..runtime..blocking..task..BlockingTask$LT$tokio..runtime..scheduler..multi_thread..worker..Launch..launch..$u7b$$u7b$closure$u7d$$u7d$$GT$$GT$$GT$17he0868cf9c20abd28E
.Ltmp230:
	li	a0, 4
	sd	a0, 0(s0)
	sb	zero, 0(s2)
	ld	ra, 88(sp)
	ld	s0, 80(sp)
	ld	s1, 72(sp)
	ld	s2, 64(sp)
	addi	sp, sp, 96
	ret
.LBB31_5:
.Lpcrel_hi76:
	auipc	a0, %pcrel_hi(.L__unnamed_21)
	addi	a0, a0, %pcrel_lo(.Lpcrel_hi76)
	sd	a0, 48(sp)
.Lpcrel_hi77:
	auipc	a0, %pcrel_hi(_ZN44_$LT$$RF$T$u20$as$u20$core..fmt..Display$GT$3fmt17h124d4597438c904bE)
	addi	a0, a0, %pcrel_lo(.Lpcrel_hi77)
	sd	a0, 56(sp)
.Lpcrel_hi78:
	auipc	a0, %pcrel_hi(.L__unnamed_22)
	addi	a0, a0, %pcrel_lo(.Lpcrel_hi78)
	sd	a0, 16(sp)
	li	a0, 1
	sd	a0, 24(sp)
	sd	zero, 0(sp)
	addi	a1, sp, 48
	sd	a1, 32(sp)
	sd	a0, 40(sp)
.Ltmp225:
.Lpcrel_hi79:
	auipc	a0, %pcrel_hi(.L__unnamed_23)
	addi	a1, a0, %pcrel_lo(.Lpcrel_hi79)
	mv	a0, sp
	call	_ZN4core9panicking9panic_fmt17h85aa23e09415105eE@plt
.Ltmp226:
	j	.LBB31_7
.LBB31_6:
.Ltmp232:
.Lpcrel_hi74:
	auipc	a0, %pcrel_hi(.L__unnamed_24)
	addi	a0, a0, %pcrel_lo(.Lpcrel_hi74)
.Lpcrel_hi75:
	auipc	a1, %pcrel_hi(.L__unnamed_25)
	addi	a2, a1, %pcrel_lo(.Lpcrel_hi75)
	li	a1, 45
	call	_ZN4core6option13expect_failed17hc3bf5d29c72a8836E@plt
.Ltmp233:
.LBB31_7:
	unimp	
.LBB31_8:
.Ltmp231:
	mv	s1, a0
	li	a0, 4
	sd	a0, 0(s0)
	j	.LBB31_10
.LBB31_9:
.Ltmp234:
	mv	s1, a0
.LBB31_10:
.Ltmp235:
	mv	a0, s0
	call	_ZN4core3ptr251drop_in_place$LT$tokio..runtime..task..harness..poll_future..$u7b$$u7b$closure$u7d$$u7d$..Guard$LT$tokio..runtime..blocking..task..BlockingTask$LT$tokio..runtime..scheduler..multi_thread..worker..Launch..launch..$u7b$$u7b$closure$u7d$$u7d$$GT$$GT$$GT$17h4f72e08c9e8b223eE
.Ltmp236:
	mv	a0, s1
	call	_Unwind_Resume@plt
	unimp	
.LBB31_12:
.Ltmp237:
	call	_ZN4core9panicking19panic_cannot_unwind17h7b6652c0f2f24b81E@plt
	unimp	
.Lfunc_end31:
	.size	_ZN3std9panicking3try7do_call17hfc39a9a70de5171aE, .Lfunc_end31-_ZN3std9panicking3try7do_call17hfc39a9a70de5171aE
	.cfi_endproc
	.section	.gcc_except_table._ZN3std9panicking3try7do_call17hfc39a9a70de5171aE,"a",@progbits
	.p2align	2, 0x0
GCC_except_table31:
.Lexception17:
	.byte	255
	.byte	255
	.byte	3
	.uleb128 .Lcst_end17-.Lcst_begin17
.Lcst_begin17:
	.word	.Lfunc_begin17-.Lfunc_begin17
	.word	.Ltmp227-.Lfunc_begin17
	.word	0
	.byte	0
	.word	.Ltmp227-.Lfunc_begin17
	.word	.Ltmp228-.Ltmp227
	.word	.Ltmp234-.Lfunc_begin17
	.byte	0
	.word	.Ltmp229-.Lfunc_begin17
	.word	.Ltmp230-.Ltmp229
	.word	.Ltmp231-.Lfunc_begin17
	.byte	0
	.word	.Ltmp225-.Lfunc_begin17
	.word	.Ltmp233-.Ltmp225
	.word	.Ltmp234-.Lfunc_begin17
	.byte	0
	.word	.Ltmp235-.Lfunc_begin17
	.word	.Ltmp236-.Ltmp235
	.word	.Ltmp237-.Lfunc_begin17
	.byte	0
	.word	.Ltmp236-.Lfunc_begin17
	.word	.Lfunc_end31-.Ltmp236
	.word	0
	.byte	0
.Lcst_end17:
	.p2align	2, 0x0

	.section	.text._ZN3std9panicking3try8do_catch17h03c8084d83bdb4a7E,"ax",@progbits
	.p2align	1
	.type	_ZN3std9panicking3try8do_catch17h03c8084d83bdb4a7E,@function
_ZN3std9panicking3try8do_catch17h03c8084d83bdb4a7E:
.Lfunc_begin18:
	.cfi_startproc
	.cfi_personality 155, DW.ref.rust_eh_personality
	.cfi_lsda 27, .Lexception18
	addi	sp, sp, -16
	.cfi_def_cfa_offset 16
	sd	ra, 8(sp)
	sd	s0, 0(sp)
	.cfi_offset ra, -8
	.cfi_offset s0, -16
	mv	s0, a0
.Ltmp238:
	mv	a0, a1
	call	_ZN3std9panicking3try7cleanup17h2ce67c0bf164775eE@plt
.Ltmp239:
	sd	a0, 0(s0)
	sd	a1, 8(s0)
	ld	ra, 8(sp)
	ld	s0, 0(sp)
	addi	sp, sp, 16
	ret
.LBB32_2:
.Ltmp240:
	call	_ZN4core9panicking19panic_cannot_unwind17h7b6652c0f2f24b81E@plt
	unimp	
.Lfunc_end32:
	.size	_ZN3std9panicking3try8do_catch17h03c8084d83bdb4a7E, .Lfunc_end32-_ZN3std9panicking3try8do_catch17h03c8084d83bdb4a7E
	.cfi_endproc
	.section	.gcc_except_table._ZN3std9panicking3try8do_catch17h03c8084d83bdb4a7E,"a",@progbits
	.p2align	2, 0x0
GCC_except_table32:
.Lexception18:
	.byte	255
	.byte	255
	.byte	3
	.uleb128 .Lcst_end18-.Lcst_begin18
.Lcst_begin18:
	.word	.Ltmp238-.Lfunc_begin18
	.word	.Ltmp239-.Ltmp238
	.word	.Ltmp240-.Lfunc_begin18
	.byte	0
.Lcst_end18:
	.p2align	2, 0x0

	.section	".text._ZN41_$LT$bool$u20$as$u20$core..fmt..Debug$GT$3fmt17hcaee3355dfd2eb24E","ax",@progbits
	.p2align	1
	.type	_ZN41_$LT$bool$u20$as$u20$core..fmt..Debug$GT$3fmt17hcaee3355dfd2eb24E,@function
_ZN41_$LT$bool$u20$as$u20$core..fmt..Debug$GT$3fmt17hcaee3355dfd2eb24E:
	.cfi_startproc
	tail	_ZN43_$LT$bool$u20$as$u20$core..fmt..Display$GT$3fmt17hd81dd32bb63dfe88E@plt
.Lfunc_end33:
	.size	_ZN41_$LT$bool$u20$as$u20$core..fmt..Debug$GT$3fmt17hcaee3355dfd2eb24E, .Lfunc_end33-_ZN41_$LT$bool$u20$as$u20$core..fmt..Debug$GT$3fmt17hcaee3355dfd2eb24E
	.cfi_endproc

	.section	".text._ZN42_$LT$$RF$T$u20$as$u20$core..fmt..Debug$GT$3fmt17h03457a68da9009ecE","ax",@progbits
	.p2align	1
	.type	_ZN42_$LT$$RF$T$u20$as$u20$core..fmt..Debug$GT$3fmt17h03457a68da9009ecE,@function
_ZN42_$LT$$RF$T$u20$as$u20$core..fmt..Debug$GT$3fmt17h03457a68da9009ecE:
	.cfi_startproc
	addi	sp, sp, -32
	.cfi_def_cfa_offset 32
	sd	ra, 24(sp)
	sd	s0, 16(sp)
	.cfi_offset ra, -8
	.cfi_offset s0, -16
	ld	a0, 0(a0)
	ld	s0, 0(a0)
.Lpcrel_hi81:
	auipc	a0, %pcrel_hi(.L__unnamed_28)
	addi	a2, a0, %pcrel_lo(.Lpcrel_hi81)
	mv	a0, sp
	li	a3, 11
	call	_ZN4core3fmt9Formatter12debug_struct17hc0fa802c913860d0E@plt
	addi	a3, s0, 32
.Lpcrel_hi82:
	auipc	a0, %pcrel_hi(.L__unnamed_29)
	addi	a1, a0, %pcrel_lo(.Lpcrel_hi82)
.Lpcrel_hi83:
	auipc	a0, %pcrel_hi(.L__unnamed_30)
	addi	a4, a0, %pcrel_lo(.Lpcrel_hi83)
	mv	a0, sp
	li	a2, 2
	call	_ZN4core3fmt8builders11DebugStruct5field17h6f896db0b51e77caE@plt
	call	_ZN4core3fmt8builders11DebugStruct6finish17h6d43ebeff4cf57a9E@plt
	ld	ra, 24(sp)
	ld	s0, 16(sp)
	addi	sp, sp, 32
	ret
.Lfunc_end34:
	.size	_ZN42_$LT$$RF$T$u20$as$u20$core..fmt..Debug$GT$3fmt17h03457a68da9009ecE, .Lfunc_end34-_ZN42_$LT$$RF$T$u20$as$u20$core..fmt..Debug$GT$3fmt17h03457a68da9009ecE
	.cfi_endproc

	.section	".text._ZN42_$LT$$RF$T$u20$as$u20$core..fmt..Debug$GT$3fmt17h087f43938ab428d3E","ax",@progbits
	.p2align	1
	.type	_ZN42_$LT$$RF$T$u20$as$u20$core..fmt..Debug$GT$3fmt17h087f43938ab428d3E,@function
_ZN42_$LT$$RF$T$u20$as$u20$core..fmt..Debug$GT$3fmt17h087f43938ab428d3E:
	.cfi_startproc
	ld	a0, 0(a0)
	tail	_ZN74_$LT$mio..net..uds..listener..UnixListener$u20$as$u20$core..fmt..Debug$GT$3fmt17hf13e23b348046848E@plt
.Lfunc_end35:
	.size	_ZN42_$LT$$RF$T$u20$as$u20$core..fmt..Debug$GT$3fmt17h087f43938ab428d3E, .Lfunc_end35-_ZN42_$LT$$RF$T$u20$as$u20$core..fmt..Debug$GT$3fmt17h087f43938ab428d3E
	.cfi_endproc

	.section	".text._ZN42_$LT$$RF$T$u20$as$u20$core..fmt..Debug$GT$3fmt17h0c2fad364c94bd09E","ax",@progbits
	.p2align	1
	.type	_ZN42_$LT$$RF$T$u20$as$u20$core..fmt..Debug$GT$3fmt17h0c2fad364c94bd09E,@function
_ZN42_$LT$$RF$T$u20$as$u20$core..fmt..Debug$GT$3fmt17h0c2fad364c94bd09E:
	.cfi_startproc
	addi	sp, sp, -48
	.cfi_def_cfa_offset 48
	sd	ra, 40(sp)
	sd	s0, 32(sp)
	sd	s1, 24(sp)
	.cfi_offset ra, -8
	.cfi_offset s0, -16
	.cfi_offset s1, -24
	ld	s0, 0(a0)
.Lpcrel_hi84:
	auipc	a0, %pcrel_hi(.L__unnamed_31)
	addi	a2, a0, %pcrel_lo(.Lpcrel_hi84)
	mv	a0, sp
	li	a3, 5
	call	_ZN4core3fmt9Formatter12debug_struct17hc0fa802c913860d0E@plt
	ld	s1, 0(s0)
	andi	a0, s1, 5
	snez	a0, a0
	sb	a0, 20(sp)
.Lpcrel_hi85:
	auipc	a0, %pcrel_hi(.L__unnamed_32)
	addi	a1, a0, %pcrel_lo(.Lpcrel_hi85)
.Lpcrel_hi86:
	auipc	a0, %pcrel_hi(.L__unnamed_33)
	addi	s0, a0, %pcrel_lo(.Lpcrel_hi86)
	mv	a0, sp
	li	a2, 11
	addi	a3, sp, 20
	mv	a4, s0
	call	_ZN4core3fmt8builders11DebugStruct5field17h6f896db0b51e77caE@plt
	andi	a1, s1, 10
	snez	a1, a1
	sb	a1, 21(sp)
.Lpcrel_hi87:
	auipc	a1, %pcrel_hi(.L__unnamed_34)
	addi	a1, a1, %pcrel_lo(.Lpcrel_hi87)
	li	a2, 11
	addi	a3, sp, 21
	mv	a4, s0
	call	_ZN4core3fmt8builders11DebugStruct5field17h6f896db0b51e77caE@plt
	slli	a1, s1, 61
	srli	a1, a1, 63
	sb	a1, 22(sp)
.Lpcrel_hi88:
	auipc	a1, %pcrel_hi(.L__unnamed_35)
	addi	a1, a1, %pcrel_lo(.Lpcrel_hi88)
	li	a2, 14
	addi	a3, sp, 22
	mv	a4, s0
	call	_ZN4core3fmt8builders11DebugStruct5field17h6f896db0b51e77caE@plt
	slli	s1, s1, 60
	srli	s1, s1, 63
	sb	s1, 23(sp)
.Lpcrel_hi89:
	auipc	a1, %pcrel_hi(.L__unnamed_36)
	addi	a1, a1, %pcrel_lo(.Lpcrel_hi89)
	li	a2, 15
	addi	a3, sp, 23
	mv	a4, s0
	call	_ZN4core3fmt8builders11DebugStruct5field17h6f896db0b51e77caE@plt
	call	_ZN4core3fmt8builders11DebugStruct6finish17h6d43ebeff4cf57a9E@plt
	ld	ra, 40(sp)
	ld	s0, 32(sp)
	ld	s1, 24(sp)
	addi	sp, sp, 48
	ret
.Lfunc_end36:
	.size	_ZN42_$LT$$RF$T$u20$as$u20$core..fmt..Debug$GT$3fmt17h0c2fad364c94bd09E, .Lfunc_end36-_ZN42_$LT$$RF$T$u20$as$u20$core..fmt..Debug$GT$3fmt17h0c2fad364c94bd09E
	.cfi_endproc

	.section	".text._ZN42_$LT$$RF$T$u20$as$u20$core..fmt..Debug$GT$3fmt17h0c4d5327580b9c5eE","ax",@progbits
	.p2align	1
	.type	_ZN42_$LT$$RF$T$u20$as$u20$core..fmt..Debug$GT$3fmt17h0c4d5327580b9c5eE,@function
_ZN42_$LT$$RF$T$u20$as$u20$core..fmt..Debug$GT$3fmt17h0c4d5327580b9c5eE:
	.cfi_startproc
	addi	sp, sp, -48
	.cfi_def_cfa_offset 48
	sd	ra, 40(sp)
	.cfi_offset ra, -8
	ld	a5, 0(a0)
	mv	a0, a1
	addi	a1, a5, 8
	sd	a1, 32(sp)
.Lpcrel_hi90:
	auipc	a1, %pcrel_hi(.L__unnamed_37)
	addi	a1, a1, %pcrel_lo(.Lpcrel_hi90)
	sd	a1, 16(sp)
	addi	a1, sp, 32
	sd	a1, 8(sp)
	li	t0, 16
.Lpcrel_hi91:
	auipc	a1, %pcrel_hi(.L__unnamed_38)
	addi	a1, a1, %pcrel_lo(.Lpcrel_hi91)
.Lpcrel_hi92:
	auipc	a2, %pcrel_hi(.L__unnamed_39)
	addi	a3, a2, %pcrel_lo(.Lpcrel_hi92)
.Lpcrel_hi93:
	auipc	a2, %pcrel_hi(.L__unnamed_40)
	addi	a6, a2, %pcrel_lo(.Lpcrel_hi93)
.Lpcrel_hi94:
	auipc	a2, %pcrel_hi(.L__unnamed_41)
	addi	a7, a2, %pcrel_lo(.Lpcrel_hi94)
	li	a2, 14
	li	a4, 5
	sd	t0, 0(sp)
	call	_ZN4core3fmt9Formatter26debug_struct_field2_finish17h5ce2a2aff4d0f3e2E@plt
	ld	ra, 40(sp)
	addi	sp, sp, 48
	ret
.Lfunc_end37:
	.size	_ZN42_$LT$$RF$T$u20$as$u20$core..fmt..Debug$GT$3fmt17h0c4d5327580b9c5eE, .Lfunc_end37-_ZN42_$LT$$RF$T$u20$as$u20$core..fmt..Debug$GT$3fmt17h0c4d5327580b9c5eE
	.cfi_endproc

	.section	".text._ZN42_$LT$$RF$T$u20$as$u20$core..fmt..Debug$GT$3fmt17h11779dd263aee512E","ax",@progbits
	.p2align	1
	.type	_ZN42_$LT$$RF$T$u20$as$u20$core..fmt..Debug$GT$3fmt17h11779dd263aee512E,@function
_ZN42_$LT$$RF$T$u20$as$u20$core..fmt..Debug$GT$3fmt17h11779dd263aee512E:
	.cfi_startproc
	addi	sp, sp, -112
	.cfi_def_cfa_offset 112
	sd	ra, 104(sp)
	.cfi_offset ra, -8
	ld	a2, 0(a0)
	lw	a3, 504(a2)
	lui	a0, 244141
	addiw	a4, a0, -1536
	mv	a0, a1
	bne	a3, a4, .LBB38_3
	ld	a1, 328(a2)
	beqz	a1, .LBB38_4
.Lpcrel_hi102:
	auipc	a1, %pcrel_hi(.L__unnamed_42)
	addi	a1, a1, %pcrel_lo(.Lpcrel_hi102)
	sd	a1, 72(sp)
	li	a1, 1
	sd	a1, 80(sp)
	sd	zero, 56(sp)
.Lpcrel_hi103:
	auipc	a1, %pcrel_hi(.L__unnamed_15)
	addi	a1, a1, %pcrel_lo(.Lpcrel_hi103)
	sd	a1, 88(sp)
	sd	zero, 96(sp)
	addi	a1, sp, 56
	call	_ZN4core3fmt9Formatter9write_fmt17hc824f318ba189234E@plt
	ld	ra, 104(sp)
	addi	sp, sp, 112
	ret
.LBB38_3:
	addi	a5, a2, 496
	addi	a1, a2, 512
	sd	a2, 56(sp)
.Lpcrel_hi95:
	auipc	a2, %pcrel_hi(.L__unnamed_43)
	addi	a2, a2, %pcrel_lo(.Lpcrel_hi95)
	sd	a2, 48(sp)
	addi	a2, sp, 56
	sd	a2, 40(sp)
	li	a2, 4
	sd	a2, 32(sp)
.Lpcrel_hi96:
	auipc	a2, %pcrel_hi(.L__unnamed_44)
	addi	a2, a2, %pcrel_lo(.Lpcrel_hi96)
	sd	a2, 24(sp)
.Lpcrel_hi97:
	auipc	a2, %pcrel_hi(.L__unnamed_45)
	addi	a2, a2, %pcrel_lo(.Lpcrel_hi97)
	sd	a2, 16(sp)
	sd	a1, 8(sp)
	li	t0, 6
.Lpcrel_hi98:
	auipc	a1, %pcrel_hi(.L__unnamed_46)
	addi	a1, a1, %pcrel_lo(.Lpcrel_hi98)
.Lpcrel_hi99:
	auipc	a2, %pcrel_hi(.L__unnamed_47)
	addi	a3, a2, %pcrel_lo(.Lpcrel_hi99)
.Lpcrel_hi100:
	auipc	a2, %pcrel_hi(.L__unnamed_48)
	addi	a6, a2, %pcrel_lo(.Lpcrel_hi100)
.Lpcrel_hi101:
	auipc	a2, %pcrel_hi(.L__unnamed_49)
	addi	a7, a2, %pcrel_lo(.Lpcrel_hi101)
	li	a2, 6
	li	a4, 11
	sd	t0, 0(sp)
	call	_ZN4core3fmt9Formatter26debug_struct_field3_finish17he155e9f6b05892a1E@plt
	ld	ra, 104(sp)
	addi	sp, sp, 112
	ret
.LBB38_4:
	sd	a2, 56(sp)
.Lpcrel_hi104:
	auipc	a1, %pcrel_hi(.L__unnamed_50)
	addi	a1, a1, %pcrel_lo(.Lpcrel_hi104)
.Lpcrel_hi105:
	auipc	a2, %pcrel_hi(.L__unnamed_39)
	addi	a3, a2, %pcrel_lo(.Lpcrel_hi105)
.Lpcrel_hi106:
	auipc	a2, %pcrel_hi(.L__unnamed_51)
	addi	a6, a2, %pcrel_lo(.Lpcrel_hi106)
	li	a2, 10
	li	a4, 5
	addi	a5, sp, 56
	call	_ZN4core3fmt9Formatter26debug_struct_field1_finish17h3c40263cb759e37bE@plt
	ld	ra, 104(sp)
	addi	sp, sp, 112
	ret
.Lfunc_end38:
	.size	_ZN42_$LT$$RF$T$u20$as$u20$core..fmt..Debug$GT$3fmt17h11779dd263aee512E, .Lfunc_end38-_ZN42_$LT$$RF$T$u20$as$u20$core..fmt..Debug$GT$3fmt17h11779dd263aee512E
	.cfi_endproc

	.section	".text._ZN42_$LT$$RF$T$u20$as$u20$core..fmt..Debug$GT$3fmt17h11f094f883b0dab8E","ax",@progbits
	.p2align	1
	.type	_ZN42_$LT$$RF$T$u20$as$u20$core..fmt..Debug$GT$3fmt17h11f094f883b0dab8E,@function
_ZN42_$LT$$RF$T$u20$as$u20$core..fmt..Debug$GT$3fmt17h11f094f883b0dab8E:
	.cfi_startproc
	ld	a0, 0(a0)
	tail	_ZN57_$LT$core..time..Duration$u20$as$u20$core..fmt..Debug$GT$3fmt17hec4afd57712957a9E@plt
.Lfunc_end39:
	.size	_ZN42_$LT$$RF$T$u20$as$u20$core..fmt..Debug$GT$3fmt17h11f094f883b0dab8E, .Lfunc_end39-_ZN42_$LT$$RF$T$u20$as$u20$core..fmt..Debug$GT$3fmt17h11f094f883b0dab8E
	.cfi_endproc

	.section	".text._ZN42_$LT$$RF$T$u20$as$u20$core..fmt..Debug$GT$3fmt17h12fa23c08dae78b3E","ax",@progbits
	.p2align	1
	.type	_ZN42_$LT$$RF$T$u20$as$u20$core..fmt..Debug$GT$3fmt17h12fa23c08dae78b3E,@function
_ZN42_$LT$$RF$T$u20$as$u20$core..fmt..Debug$GT$3fmt17h12fa23c08dae78b3E:
	.cfi_startproc
	ld	a0, 0(a0)
	ld	a0, 0(a0)
	tail	_ZN4core3fmt17pointer_fmt_inner17hd1258c7e455d89bbE@plt
.Lfunc_end40:
	.size	_ZN42_$LT$$RF$T$u20$as$u20$core..fmt..Debug$GT$3fmt17h12fa23c08dae78b3E, .Lfunc_end40-_ZN42_$LT$$RF$T$u20$as$u20$core..fmt..Debug$GT$3fmt17h12fa23c08dae78b3E
	.cfi_endproc

	.section	".text._ZN42_$LT$$RF$T$u20$as$u20$core..fmt..Debug$GT$3fmt17h13b0ae0adb48de3fE","ax",@progbits
	.p2align	1
	.type	_ZN42_$LT$$RF$T$u20$as$u20$core..fmt..Debug$GT$3fmt17h13b0ae0adb48de3fE,@function
_ZN42_$LT$$RF$T$u20$as$u20$core..fmt..Debug$GT$3fmt17h13b0ae0adb48de3fE:
	.cfi_startproc
	addi	sp, sp, -16
	.cfi_def_cfa_offset 16
	sd	ra, 8(sp)
	.cfi_offset ra, -8
	ld	a2, 0(a0)
	mv	a0, a1
	sd	a2, 0(sp)
.Lpcrel_hi107:
	auipc	a1, %pcrel_hi(.L__unnamed_52)
	addi	a1, a1, %pcrel_lo(.Lpcrel_hi107)
.Lpcrel_hi108:
	auipc	a2, %pcrel_hi(.L__unnamed_53)
	addi	a4, a2, %pcrel_lo(.Lpcrel_hi108)
	li	a2, 7
	mv	a3, sp
	call	_ZN4core3fmt9Formatter25debug_tuple_field1_finish17h2c8f4c389c486260E@plt
	ld	ra, 8(sp)
	addi	sp, sp, 16
	ret
.Lfunc_end41:
	.size	_ZN42_$LT$$RF$T$u20$as$u20$core..fmt..Debug$GT$3fmt17h13b0ae0adb48de3fE, .Lfunc_end41-_ZN42_$LT$$RF$T$u20$as$u20$core..fmt..Debug$GT$3fmt17h13b0ae0adb48de3fE
	.cfi_endproc

	.section	".text._ZN42_$LT$$RF$T$u20$as$u20$core..fmt..Debug$GT$3fmt17h14230cefe2a8617dE","ax",@progbits
	.p2align	1
	.type	_ZN42_$LT$$RF$T$u20$as$u20$core..fmt..Debug$GT$3fmt17h14230cefe2a8617dE,@function
_ZN42_$LT$$RF$T$u20$as$u20$core..fmt..Debug$GT$3fmt17h14230cefe2a8617dE:
	.cfi_startproc
	ld	a0, 0(a0)
	tail	_ZN64_$LT$std..sync..condvar..Condvar$u20$as$u20$core..fmt..Debug$GT$3fmt17h23f3f574accfecaaE@plt
.Lfunc_end42:
	.size	_ZN42_$LT$$RF$T$u20$as$u20$core..fmt..Debug$GT$3fmt17h14230cefe2a8617dE, .Lfunc_end42-_ZN42_$LT$$RF$T$u20$as$u20$core..fmt..Debug$GT$3fmt17h14230cefe2a8617dE
	.cfi_endproc

	.section	".text._ZN42_$LT$$RF$T$u20$as$u20$core..fmt..Debug$GT$3fmt17h15714fda13b29cc2E","ax",@progbits
	.p2align	1
	.type	_ZN42_$LT$$RF$T$u20$as$u20$core..fmt..Debug$GT$3fmt17h15714fda13b29cc2E,@function
_ZN42_$LT$$RF$T$u20$as$u20$core..fmt..Debug$GT$3fmt17h15714fda13b29cc2E:
	.cfi_startproc
	addi	sp, sp, -64
	.cfi_def_cfa_offset 64
	sd	ra, 56(sp)
	sd	s0, 48(sp)
	sd	s1, 40(sp)
	.cfi_offset ra, -8
	.cfi_offset s0, -16
	.cfi_offset s1, -24
	ld	a0, 0(a0)
	ld	s0, 8(a0)
	ld	s1, 16(a0)
.Lpcrel_hi109:
	auipc	a0, %pcrel_hi(.L__unnamed_54)
	addi	a2, a0, %pcrel_lo(.Lpcrel_hi109)
	mv	a0, sp
	li	a3, 8
	call	_ZN4core3fmt9Formatter11debug_tuple17h866616b79294e75bE@plt
	sub	s1, s1, s0
	srli	s1, s1, 5
	sd	s0, 24(sp)
	sd	s1, 32(sp)
.Lpcrel_hi110:
	auipc	a0, %pcrel_hi(.L__unnamed_55)
	addi	a2, a0, %pcrel_lo(.Lpcrel_hi110)
	mv	a0, sp
	addi	a1, sp, 24
	call	_ZN4core3fmt8builders10DebugTuple5field17h40197296f19c9c7cE@plt
	call	_ZN4core3fmt8builders10DebugTuple6finish17h0669de479b807fd7E@plt
	ld	ra, 56(sp)
	ld	s0, 48(sp)
	ld	s1, 40(sp)
	addi	sp, sp, 64
	ret
.Lfunc_end43:
	.size	_ZN42_$LT$$RF$T$u20$as$u20$core..fmt..Debug$GT$3fmt17h15714fda13b29cc2E, .Lfunc_end43-_ZN42_$LT$$RF$T$u20$as$u20$core..fmt..Debug$GT$3fmt17h15714fda13b29cc2E
	.cfi_endproc

	.section	".text._ZN42_$LT$$RF$T$u20$as$u20$core..fmt..Debug$GT$3fmt17h15bf9c1dc11852fcE","ax",@progbits
	.p2align	1
	.type	_ZN42_$LT$$RF$T$u20$as$u20$core..fmt..Debug$GT$3fmt17h15bf9c1dc11852fcE,@function
_ZN42_$LT$$RF$T$u20$as$u20$core..fmt..Debug$GT$3fmt17h15bf9c1dc11852fcE:
	.cfi_startproc
	addi	sp, sp, -32
	.cfi_def_cfa_offset 32
	sd	ra, 24(sp)
	sd	s0, 16(sp)
	.cfi_offset ra, -8
	.cfi_offset s0, -16
	ld	s0, 0(a0)
.Lpcrel_hi111:
	auipc	a0, %pcrel_hi(.L__unnamed_56)
	addi	a2, a0, %pcrel_lo(.Lpcrel_hi111)
	mv	a0, sp
	li	a3, 5
	call	_ZN4core3fmt9Formatter12debug_struct17hc0fa802c913860d0E@plt
	addi	a3, s0, 1032
.Lpcrel_hi112:
	auipc	a0, %pcrel_hi(.L__unnamed_57)
	addi	a1, a0, %pcrel_lo(.Lpcrel_hi112)
.Lpcrel_hi113:
	auipc	a0, %pcrel_hi(.L__unnamed_58)
	addi	a4, a0, %pcrel_lo(.Lpcrel_hi113)
	mv	a0, sp
	li	a2, 8
	call	_ZN4core3fmt8builders11DebugStruct5field17h6f896db0b51e77caE@plt
	call	_ZN4core3fmt8builders11DebugStruct6finish17h6d43ebeff4cf57a9E@plt
	ld	ra, 24(sp)
	ld	s0, 16(sp)
	addi	sp, sp, 32
	ret
.Lfunc_end44:
	.size	_ZN42_$LT$$RF$T$u20$as$u20$core..fmt..Debug$GT$3fmt17h15bf9c1dc11852fcE, .Lfunc_end44-_ZN42_$LT$$RF$T$u20$as$u20$core..fmt..Debug$GT$3fmt17h15bf9c1dc11852fcE
	.cfi_endproc

	.section	".text._ZN42_$LT$$RF$T$u20$as$u20$core..fmt..Debug$GT$3fmt17h18c4d02cf2bd419aE","ax",@progbits
	.p2align	1
	.type	_ZN42_$LT$$RF$T$u20$as$u20$core..fmt..Debug$GT$3fmt17h18c4d02cf2bd419aE,@function
_ZN42_$LT$$RF$T$u20$as$u20$core..fmt..Debug$GT$3fmt17h18c4d02cf2bd419aE:
.Lfunc_begin19:
	.cfi_startproc
	.cfi_personality 155, DW.ref.rust_eh_personality
	.cfi_lsda 27, .Lexception19
	addi	sp, sp, -64
	.cfi_def_cfa_offset 64
	sd	ra, 56(sp)
	sd	s0, 48(sp)
	sd	s1, 40(sp)
	sd	s2, 32(sp)
	sd	s3, 24(sp)
	.cfi_offset ra, -8
	.cfi_offset s0, -16
	.cfi_offset s1, -24
	.cfi_offset s2, -32
	.cfi_offset s3, -40
	ld	s0, 0(a0)
.Lpcrel_hi114:
	auipc	a0, %pcrel_hi(.L__unnamed_59)
	addi	a2, a0, %pcrel_lo(.Lpcrel_hi114)
	mv	a0, sp
	li	a3, 5
	call	_ZN4core3fmt9Formatter12debug_struct17hc0fa802c913860d0E@plt
	li	a0, 1
.LBB45_18:
	lr.w.aq	a1, (s0)
	bnez	a1, .LBB45_4
	sc.w	a2, a0, (s0)
	bnez	a2, .LBB45_18
.Lpcrel_hi115:
	auipc	a0, %got_pcrel_hi(_ZN3std9panicking11panic_count18GLOBAL_PANIC_COUNT17h813e628f0cb26d91E)
	ld	s1, %pcrel_lo(.Lpcrel_hi115)(a0)
	ld	a0, 0(s1)
	slli	a0, a0, 1
	li	s2, -1
	bnez	a0, .LBB45_5
	li	s3, 0
	lb	a1, 4(s0)
	srli	s2, s2, 1
	addi	a0, s0, 8
	beqz	a1, .LBB45_6
.LBB45_3:
	sd	a0, 16(sp)
.Ltmp241:
.Lpcrel_hi119:
	auipc	a0, %pcrel_hi(.L__unnamed_60)
	addi	a1, a0, %pcrel_lo(.Lpcrel_hi119)
.Lpcrel_hi120:
	auipc	a0, %pcrel_hi(.L__unnamed_61)
	addi	a4, a0, %pcrel_lo(.Lpcrel_hi120)
	mv	a0, sp
	li	a2, 4
	addi	a3, sp, 16
	call	_ZN4core3fmt8builders11DebugStruct5field17h6f896db0b51e77caE@plt
.Ltmp242:
	j	.LBB45_7
.LBB45_4:
.Lpcrel_hi116:
	auipc	a0, %pcrel_hi(.L__unnamed_60)
	addi	a1, a0, %pcrel_lo(.Lpcrel_hi116)
.Lpcrel_hi117:
	auipc	a0, %pcrel_hi(.L__unnamed_15)
	addi	a3, a0, %pcrel_lo(.Lpcrel_hi117)
.Lpcrel_hi118:
	auipc	a0, %pcrel_hi(.L__unnamed_62)
	addi	a4, a0, %pcrel_lo(.Lpcrel_hi118)
	mv	a0, sp
	li	a2, 4
	call	_ZN4core3fmt8builders11DebugStruct5field17h6f896db0b51e77caE@plt
	j	.LBB45_10
.LBB45_5:
	call	_ZN3std9panicking11panic_count17is_zero_slow_path17he417053412855f77E@plt
	xori	s3, a0, 1
	lb	a1, 4(s0)
	srli	s2, s2, 1
	addi	a0, s0, 8
	bnez	a1, .LBB45_3
.LBB45_6:
	sd	a0, 16(sp)
.Ltmp246:
.Lpcrel_hi121:
	auipc	a0, %pcrel_hi(.L__unnamed_60)
	addi	a1, a0, %pcrel_lo(.Lpcrel_hi121)
.Lpcrel_hi122:
	auipc	a0, %pcrel_hi(.L__unnamed_61)
	addi	a4, a0, %pcrel_lo(.Lpcrel_hi122)
	mv	a0, sp
	li	a2, 4
	addi	a3, sp, 16
	call	_ZN4core3fmt8builders11DebugStruct5field17h6f896db0b51e77caE@plt
.Ltmp247:
.LBB45_7:
	bnez	s3, .LBB45_9
	ld	a0, 0(s1)
	and	a0, a0, s2
	bnez	a0, .LBB45_12
.LBB45_9:
	amoswap.w.rl	a0, zero, (s0)
	li	a1, 2
	beq	a0, a1, .LBB45_11
.LBB45_10:
	lb	a0, 4(s0)
	snez	a0, a0
	sb	a0, 16(sp)
.Lpcrel_hi123:
	auipc	a0, %pcrel_hi(.L__unnamed_63)
	addi	a1, a0, %pcrel_lo(.Lpcrel_hi123)
.Lpcrel_hi124:
	auipc	a0, %pcrel_hi(.L__unnamed_33)
	addi	a4, a0, %pcrel_lo(.Lpcrel_hi124)
	mv	a0, sp
	li	a2, 8
	addi	a3, sp, 16
	call	_ZN4core3fmt8builders11DebugStruct5field17h6f896db0b51e77caE@plt
	mv	a0, sp
	call	_ZN4core3fmt8builders11DebugStruct21finish_non_exhaustive17h83b2a07b490175b3E@plt
	ld	ra, 56(sp)
	ld	s0, 48(sp)
	ld	s1, 40(sp)
	ld	s2, 32(sp)
	ld	s3, 24(sp)
	addi	sp, sp, 64
	ret
.LBB45_11:
	mv	a0, s0
	call	_ZN3std3sys4unix5locks11futex_mutex5Mutex4wake17h5ccb808587248eb1E@plt
	j	.LBB45_10
.LBB45_12:
	call	_ZN3std9panicking11panic_count17is_zero_slow_path17he417053412855f77E@plt
	bnez	a0, .LBB45_9
	li	a0, 1
	sb	a0, 4(s0)
	j	.LBB45_9
.LBB45_14:
.Ltmp248:
	mv	s2, a0
.Ltmp249:
	mv	a0, s0
	mv	a1, s3
	call	_ZN4core3ptr121drop_in_place$LT$std..sync..poison..PoisonError$LT$std..sync..mutex..MutexGuard$LT$tokio..io..util..mem..Pipe$GT$$GT$$GT$17haeaff8cb67a08524E
.Ltmp250:
	j	.LBB45_16
.LBB45_15:
.Ltmp243:
	mv	s2, a0
.Ltmp244:
	mv	a0, s0
	mv	a1, s3
	call	_ZN4core3ptr121drop_in_place$LT$std..sync..poison..PoisonError$LT$std..sync..mutex..MutexGuard$LT$tokio..io..util..mem..Pipe$GT$$GT$$GT$17haeaff8cb67a08524E
.Ltmp245:
.LBB45_16:
	mv	a0, s2
	call	_Unwind_Resume@plt
	unimp	
.LBB45_17:
.Ltmp251:
	call	_ZN4core9panicking19panic_cannot_unwind17h7b6652c0f2f24b81E@plt
	unimp	
.Lfunc_end45:
	.size	_ZN42_$LT$$RF$T$u20$as$u20$core..fmt..Debug$GT$3fmt17h18c4d02cf2bd419aE, .Lfunc_end45-_ZN42_$LT$$RF$T$u20$as$u20$core..fmt..Debug$GT$3fmt17h18c4d02cf2bd419aE
	.cfi_endproc
	.section	".gcc_except_table._ZN42_$LT$$RF$T$u20$as$u20$core..fmt..Debug$GT$3fmt17h18c4d02cf2bd419aE","a",@progbits
	.p2align	2, 0x0
GCC_except_table45:
.Lexception19:
	.byte	255
	.byte	255
	.byte	3
	.uleb128 .Lcst_end19-.Lcst_begin19
.Lcst_begin19:
	.word	.Lfunc_begin19-.Lfunc_begin19
	.word	.Ltmp241-.Lfunc_begin19
	.word	0
	.byte	0
	.word	.Ltmp241-.Lfunc_begin19
	.word	.Ltmp242-.Ltmp241
	.word	.Ltmp243-.Lfunc_begin19
	.byte	0
	.word	.Ltmp242-.Lfunc_begin19
	.word	.Ltmp246-.Ltmp242
	.word	0
	.byte	0
	.word	.Ltmp246-.Lfunc_begin19
	.word	.Ltmp247-.Ltmp246
	.word	.Ltmp248-.Lfunc_begin19
	.byte	0
	.word	.Ltmp247-.Lfunc_begin19
	.word	.Ltmp249-.Ltmp247
	.word	0
	.byte	0
	.word	.Ltmp249-.Lfunc_begin19
	.word	.Ltmp245-.Ltmp249
	.word	.Ltmp251-.Lfunc_begin19
	.byte	0
	.word	.Ltmp245-.Lfunc_begin19
	.word	.Lfunc_end45-.Ltmp245
	.word	0
	.byte	0
.Lcst_end19:
	.p2align	2, 0x0

	.section	".text._ZN42_$LT$$RF$T$u20$as$u20$core..fmt..Debug$GT$3fmt17h19dcad456b559105E","ax",@progbits
	.p2align	1
	.type	_ZN42_$LT$$RF$T$u20$as$u20$core..fmt..Debug$GT$3fmt17h19dcad456b559105E,@function
_ZN42_$LT$$RF$T$u20$as$u20$core..fmt..Debug$GT$3fmt17h19dcad456b559105E:
	.cfi_startproc
	addi	sp, sp, -32
	.cfi_def_cfa_offset 32
	sd	ra, 24(sp)
	.cfi_offset ra, -8
.Lpcrel_hi125:
	auipc	a0, %pcrel_hi(.L__unnamed_64)
	addi	a2, a0, %pcrel_lo(.Lpcrel_hi125)
	addi	a0, sp, 8
	li	a3, 10
	call	_ZN4core3fmt9Formatter12debug_struct17hc0fa802c913860d0E@plt
	addi	a0, sp, 8
	call	_ZN4core3fmt8builders11DebugStruct21finish_non_exhaustive17h83b2a07b490175b3E@plt
	ld	ra, 24(sp)
	addi	sp, sp, 32
	ret
.Lfunc_end46:
	.size	_ZN42_$LT$$RF$T$u20$as$u20$core..fmt..Debug$GT$3fmt17h19dcad456b559105E, .Lfunc_end46-_ZN42_$LT$$RF$T$u20$as$u20$core..fmt..Debug$GT$3fmt17h19dcad456b559105E
	.cfi_endproc

	.section	".text._ZN42_$LT$$RF$T$u20$as$u20$core..fmt..Debug$GT$3fmt17h1c0d39a4b38e9807E","ax",@progbits
	.p2align	1
	.type	_ZN42_$LT$$RF$T$u20$as$u20$core..fmt..Debug$GT$3fmt17h1c0d39a4b38e9807E,@function
_ZN42_$LT$$RF$T$u20$as$u20$core..fmt..Debug$GT$3fmt17h1c0d39a4b38e9807E:
	.cfi_startproc
	ld	a0, 0(a0)
	tail	_ZN60_$LT$core..task..wake..Waker$u20$as$u20$core..fmt..Debug$GT$3fmt17h1c9f944d10456eadE@plt
.Lfunc_end47:
	.size	_ZN42_$LT$$RF$T$u20$as$u20$core..fmt..Debug$GT$3fmt17h1c0d39a4b38e9807E, .Lfunc_end47-_ZN42_$LT$$RF$T$u20$as$u20$core..fmt..Debug$GT$3fmt17h1c0d39a4b38e9807E
	.cfi_endproc

	.section	".text._ZN42_$LT$$RF$T$u20$as$u20$core..fmt..Debug$GT$3fmt17h2641e51db3dc3613E","ax",@progbits
	.p2align	1
	.type	_ZN42_$LT$$RF$T$u20$as$u20$core..fmt..Debug$GT$3fmt17h2641e51db3dc3613E,@function
_ZN42_$LT$$RF$T$u20$as$u20$core..fmt..Debug$GT$3fmt17h2641e51db3dc3613E:
	.cfi_startproc
	addi	sp, sp, -16
	.cfi_def_cfa_offset 16
	sd	ra, 8(sp)
	.cfi_offset ra, -8
	ld	a2, 0(a0)
	ld	a3, 0(a2)
	mv	a0, a1
	beqz	a3, .LBB48_2
	sd	a2, 0(sp)
.Lpcrel_hi127:
	auipc	a1, %pcrel_hi(.L__unnamed_65)
	addi	a1, a1, %pcrel_lo(.Lpcrel_hi127)
.Lpcrel_hi128:
	auipc	a2, %pcrel_hi(.L__unnamed_66)
	addi	a4, a2, %pcrel_lo(.Lpcrel_hi128)
	li	a2, 4
	mv	a3, sp
	call	_ZN4core3fmt9Formatter25debug_tuple_field1_finish17h2c8f4c389c486260E@plt
	ld	ra, 8(sp)
	addi	sp, sp, 16
	ret
.LBB48_2:
.Lpcrel_hi126:
	auipc	a1, %pcrel_hi(.L__unnamed_67)
	addi	a1, a1, %pcrel_lo(.Lpcrel_hi126)
	li	a2, 4
	ld	ra, 8(sp)
	addi	sp, sp, 16
	tail	_ZN4core3fmt9Formatter9write_str17h6a12f92004fea676E@plt
.Lfunc_end48:
	.size	_ZN42_$LT$$RF$T$u20$as$u20$core..fmt..Debug$GT$3fmt17h2641e51db3dc3613E, .Lfunc_end48-_ZN42_$LT$$RF$T$u20$as$u20$core..fmt..Debug$GT$3fmt17h2641e51db3dc3613E
	.cfi_endproc

	.section	".text._ZN42_$LT$$RF$T$u20$as$u20$core..fmt..Debug$GT$3fmt17h284611a17b2b3cecE","ax",@progbits
	.p2align	1
	.type	_ZN42_$LT$$RF$T$u20$as$u20$core..fmt..Debug$GT$3fmt17h284611a17b2b3cecE,@function
_ZN42_$LT$$RF$T$u20$as$u20$core..fmt..Debug$GT$3fmt17h284611a17b2b3cecE:
	.cfi_startproc
	addi	sp, sp, -32
	.cfi_def_cfa_offset 32
	sd	ra, 24(sp)
	sd	s0, 16(sp)
	sd	s1, 8(sp)
	.cfi_offset ra, -8
	.cfi_offset s0, -16
	.cfi_offset s1, -24
	ld	s1, 0(a0)
	mv	s0, a1
	mv	a0, a1
	call	_ZN4core3fmt9Formatter15debug_lower_hex17h997a8feb780e79d7E@plt
	beqz	a0, .LBB49_2
	mv	a0, s1
	mv	a1, s0
	ld	ra, 24(sp)
	ld	s0, 16(sp)
	ld	s1, 8(sp)
	addi	sp, sp, 32
	tail	_ZN4core3fmt3num53_$LT$impl$u20$core..fmt..LowerHex$u20$for$u20$u32$GT$3fmt17h99be82a1e6da60a0E@plt
.LBB49_2:
	mv	a0, s0
	call	_ZN4core3fmt9Formatter15debug_upper_hex17he827cad4c6077043E@plt
	beqz	a0, .LBB49_4
	mv	a0, s1
	mv	a1, s0
	ld	ra, 24(sp)
	ld	s0, 16(sp)
	ld	s1, 8(sp)
	addi	sp, sp, 32
	tail	_ZN4core3fmt3num53_$LT$impl$u20$core..fmt..UpperHex$u20$for$u20$u32$GT$3fmt17h77bc52937dd7ae37E@plt
.LBB49_4:
	mv	a0, s1
	mv	a1, s0
	ld	ra, 24(sp)
	ld	s0, 16(sp)
	ld	s1, 8(sp)
	addi	sp, sp, 32
	tail	_ZN4core3fmt3num3imp52_$LT$impl$u20$core..fmt..Display$u20$for$u20$u32$GT$3fmt17h12c72945a5692b7dE@plt
.Lfunc_end49:
	.size	_ZN42_$LT$$RF$T$u20$as$u20$core..fmt..Debug$GT$3fmt17h284611a17b2b3cecE, .Lfunc_end49-_ZN42_$LT$$RF$T$u20$as$u20$core..fmt..Debug$GT$3fmt17h284611a17b2b3cecE
	.cfi_endproc

	.section	".text._ZN42_$LT$$RF$T$u20$as$u20$core..fmt..Debug$GT$3fmt17h28bc0f07e1c15c63E","ax",@progbits
	.p2align	1
	.type	_ZN42_$LT$$RF$T$u20$as$u20$core..fmt..Debug$GT$3fmt17h28bc0f07e1c15c63E,@function
_ZN42_$LT$$RF$T$u20$as$u20$core..fmt..Debug$GT$3fmt17h28bc0f07e1c15c63E:
	.cfi_startproc
.Lpcrel_hi129:
	auipc	a0, %pcrel_hi(.L__unnamed_68)
	addi	a3, a0, %pcrel_lo(.Lpcrel_hi129)
	li	a2, 2
	mv	a0, a1
	mv	a1, a3
	tail	_ZN4core3fmt9Formatter3pad17h8b5453fbd199fafcE@plt
.Lfunc_end50:
	.size	_ZN42_$LT$$RF$T$u20$as$u20$core..fmt..Debug$GT$3fmt17h28bc0f07e1c15c63E, .Lfunc_end50-_ZN42_$LT$$RF$T$u20$as$u20$core..fmt..Debug$GT$3fmt17h28bc0f07e1c15c63E
	.cfi_endproc

	.section	".text._ZN42_$LT$$RF$T$u20$as$u20$core..fmt..Debug$GT$3fmt17h2b0c7effeef4d6ccE","ax",@progbits
	.p2align	1
	.type	_ZN42_$LT$$RF$T$u20$as$u20$core..fmt..Debug$GT$3fmt17h2b0c7effeef4d6ccE,@function
_ZN42_$LT$$RF$T$u20$as$u20$core..fmt..Debug$GT$3fmt17h2b0c7effeef4d6ccE:
	.cfi_startproc
	addi	sp, sp, -48
	.cfi_def_cfa_offset 48
	sd	ra, 40(sp)
	sd	s0, 32(sp)
	.cfi_offset ra, -8
	.cfi_offset s0, -16
	ld	a0, 0(a0)
	ld	s0, 0(a0)
.Lpcrel_hi130:
	auipc	a0, %pcrel_hi(.L__unnamed_69)
	addi	a2, a0, %pcrel_lo(.Lpcrel_hi130)
	addi	a0, sp, 8
	li	a3, 5
	call	_ZN4core3fmt9Formatter12debug_struct17hc0fa802c913860d0E@plt
	ld	a0, 48(s0)
	sd	a0, 24(sp)
.Lpcrel_hi131:
	auipc	a0, %pcrel_hi(.L__unnamed_70)
	addi	a1, a0, %pcrel_lo(.Lpcrel_hi131)
.Lpcrel_hi132:
	auipc	a0, %pcrel_hi(.L__unnamed_71)
	addi	a4, a0, %pcrel_lo(.Lpcrel_hi132)
	addi	a0, sp, 8
	li	a2, 5
	addi	a3, sp, 24
	call	_ZN4core3fmt8builders11DebugStruct5field17h6f896db0b51e77caE@plt
	call	_ZN4core3fmt8builders11DebugStruct6finish17h6d43ebeff4cf57a9E@plt
	ld	ra, 40(sp)
	ld	s0, 32(sp)
	addi	sp, sp, 48
	ret
.Lfunc_end51:
	.size	_ZN42_$LT$$RF$T$u20$as$u20$core..fmt..Debug$GT$3fmt17h2b0c7effeef4d6ccE, .Lfunc_end51-_ZN42_$LT$$RF$T$u20$as$u20$core..fmt..Debug$GT$3fmt17h2b0c7effeef4d6ccE
	.cfi_endproc

	.section	".text._ZN42_$LT$$RF$T$u20$as$u20$core..fmt..Debug$GT$3fmt17h2f7168539055abe4E","ax",@progbits
	.p2align	1
	.type	_ZN42_$LT$$RF$T$u20$as$u20$core..fmt..Debug$GT$3fmt17h2f7168539055abe4E,@function
_ZN42_$LT$$RF$T$u20$as$u20$core..fmt..Debug$GT$3fmt17h2f7168539055abe4E:
	.cfi_startproc
	addi	sp, sp, -96
	.cfi_def_cfa_offset 96
	sd	ra, 88(sp)
	.cfi_offset ra, -8
	mv	a0, a1
.Lpcrel_hi133:
	auipc	a1, %pcrel_hi(.L__unnamed_72)
	addi	a1, a1, %pcrel_lo(.Lpcrel_hi133)
	sd	a1, 72(sp)
	li	a1, 31
	sd	a1, 80(sp)
	addi	a1, sp, 72
	sd	a1, 56(sp)
.Lpcrel_hi134:
	auipc	a1, %pcrel_hi(_ZN44_$LT$$RF$T$u20$as$u20$core..fmt..Display$GT$3fmt17h124d4597438c904bE)
	addi	a1, a1, %pcrel_lo(.Lpcrel_hi134)
	sd	a1, 64(sp)
.Lpcrel_hi135:
	auipc	a1, %pcrel_hi(.L__unnamed_73)
	addi	a1, a1, %pcrel_lo(.Lpcrel_hi135)
	sd	a1, 24(sp)
	li	a1, 2
	sd	a1, 32(sp)
	sd	zero, 8(sp)
	addi	a1, sp, 56
	sd	a1, 40(sp)
	li	a1, 1
	sd	a1, 48(sp)
	addi	a1, sp, 8
	call	_ZN4core3fmt9Formatter9write_fmt17hc824f318ba189234E@plt
	ld	ra, 88(sp)
	addi	sp, sp, 96
	ret
.Lfunc_end52:
	.size	_ZN42_$LT$$RF$T$u20$as$u20$core..fmt..Debug$GT$3fmt17h2f7168539055abe4E, .Lfunc_end52-_ZN42_$LT$$RF$T$u20$as$u20$core..fmt..Debug$GT$3fmt17h2f7168539055abe4E
	.cfi_endproc

	.section	".text._ZN42_$LT$$RF$T$u20$as$u20$core..fmt..Debug$GT$3fmt17h2fe64b8bf5cc6af5E","ax",@progbits
	.p2align	1
	.type	_ZN42_$LT$$RF$T$u20$as$u20$core..fmt..Debug$GT$3fmt17h2fe64b8bf5cc6af5E,@function
_ZN42_$LT$$RF$T$u20$as$u20$core..fmt..Debug$GT$3fmt17h2fe64b8bf5cc6af5E:
	.cfi_startproc
	ld	a0, 0(a0)
	lbu	a3, 0(a0)
	mv	a0, a1
	seqz	a2, a3
	addi	a2, a2, 9
	beqz	a3, .LBB53_2
.Lpcrel_hi137:
	auipc	a1, %pcrel_hi(.L__unnamed_74)
	addi	a1, a1, %pcrel_lo(.Lpcrel_hi137)
	tail	_ZN4core3fmt9Formatter9write_str17h6a12f92004fea676E@plt
.LBB53_2:
.Lpcrel_hi136:
	auipc	a1, %pcrel_hi(.L__unnamed_75)
	addi	a1, a1, %pcrel_lo(.Lpcrel_hi136)
	tail	_ZN4core3fmt9Formatter9write_str17h6a12f92004fea676E@plt
.Lfunc_end53:
	.size	_ZN42_$LT$$RF$T$u20$as$u20$core..fmt..Debug$GT$3fmt17h2fe64b8bf5cc6af5E, .Lfunc_end53-_ZN42_$LT$$RF$T$u20$as$u20$core..fmt..Debug$GT$3fmt17h2fe64b8bf5cc6af5E
	.cfi_endproc

	.section	".text._ZN42_$LT$$RF$T$u20$as$u20$core..fmt..Debug$GT$3fmt17h37c82046f31f2facE","ax",@progbits
	.p2align	1
	.type	_ZN42_$LT$$RF$T$u20$as$u20$core..fmt..Debug$GT$3fmt17h37c82046f31f2facE,@function
_ZN42_$LT$$RF$T$u20$as$u20$core..fmt..Debug$GT$3fmt17h37c82046f31f2facE:
	.cfi_startproc
	addi	sp, sp, -16
	.cfi_def_cfa_offset 16
	sd	ra, 8(sp)
	.cfi_offset ra, -8
	ld	a2, 0(a0)
	lhu	a3, 0(a2)
	li	a4, 3
	mv	a0, a1
	bne	a3, a4, .LBB54_2
	addi	a2, a2, 8
	sd	a2, 0(sp)
.Lpcrel_hi140:
	auipc	a1, %pcrel_hi(.L__unnamed_76)
	addi	a1, a1, %pcrel_lo(.Lpcrel_hi140)
.Lpcrel_hi141:
	auipc	a2, %pcrel_hi(.L__unnamed_77)
	addi	a4, a2, %pcrel_lo(.Lpcrel_hi141)
	li	a2, 8
	j	.LBB54_3
.LBB54_2:
	sd	a2, 0(sp)
.Lpcrel_hi138:
	auipc	a1, %pcrel_hi(.L__unnamed_31)
	addi	a1, a1, %pcrel_lo(.Lpcrel_hi138)
.Lpcrel_hi139:
	auipc	a2, %pcrel_hi(.L__unnamed_78)
	addi	a4, a2, %pcrel_lo(.Lpcrel_hi139)
	li	a2, 5
.LBB54_3:
	mv	a3, sp
	call	_ZN4core3fmt9Formatter25debug_tuple_field1_finish17h2c8f4c389c486260E@plt
	ld	ra, 8(sp)
	addi	sp, sp, 16
	ret
.Lfunc_end54:
	.size	_ZN42_$LT$$RF$T$u20$as$u20$core..fmt..Debug$GT$3fmt17h37c82046f31f2facE, .Lfunc_end54-_ZN42_$LT$$RF$T$u20$as$u20$core..fmt..Debug$GT$3fmt17h37c82046f31f2facE
	.cfi_endproc

	.section	".text._ZN42_$LT$$RF$T$u20$as$u20$core..fmt..Debug$GT$3fmt17h43008cf98e51bd80E","ax",@progbits
	.p2align	1
	.type	_ZN42_$LT$$RF$T$u20$as$u20$core..fmt..Debug$GT$3fmt17h43008cf98e51bd80E,@function
_ZN42_$LT$$RF$T$u20$as$u20$core..fmt..Debug$GT$3fmt17h43008cf98e51bd80E:
	.cfi_startproc
	addi	sp, sp, -96
	.cfi_def_cfa_offset 96
	sd	ra, 88(sp)
	.cfi_offset ra, -8
	mv	a0, a1
.Lpcrel_hi142:
	auipc	a1, %pcrel_hi(.L__unnamed_79)
	addi	a1, a1, %pcrel_lo(.Lpcrel_hi142)
	sd	a1, 72(sp)
	li	a1, 3
	sd	a1, 80(sp)
	addi	a1, sp, 72
	sd	a1, 56(sp)
.Lpcrel_hi143:
	auipc	a1, %pcrel_hi(_ZN44_$LT$$RF$T$u20$as$u20$core..fmt..Display$GT$3fmt17h124d4597438c904bE)
	addi	a1, a1, %pcrel_lo(.Lpcrel_hi143)
	sd	a1, 64(sp)
.Lpcrel_hi144:
	auipc	a1, %pcrel_hi(.L__unnamed_73)
	addi	a1, a1, %pcrel_lo(.Lpcrel_hi144)
	sd	a1, 24(sp)
	li	a1, 2
	sd	a1, 32(sp)
	sd	zero, 8(sp)
	addi	a1, sp, 56
	sd	a1, 40(sp)
	li	a1, 1
	sd	a1, 48(sp)
	addi	a1, sp, 8
	call	_ZN4core3fmt9Formatter9write_fmt17hc824f318ba189234E@plt
	ld	ra, 88(sp)
	addi	sp, sp, 96
	ret
.Lfunc_end55:
	.size	_ZN42_$LT$$RF$T$u20$as$u20$core..fmt..Debug$GT$3fmt17h43008cf98e51bd80E, .Lfunc_end55-_ZN42_$LT$$RF$T$u20$as$u20$core..fmt..Debug$GT$3fmt17h43008cf98e51bd80E
	.cfi_endproc

	.section	".text._ZN42_$LT$$RF$T$u20$as$u20$core..fmt..Debug$GT$3fmt17h434a8ab7f020fc36E","ax",@progbits
	.p2align	1
	.type	_ZN42_$LT$$RF$T$u20$as$u20$core..fmt..Debug$GT$3fmt17h434a8ab7f020fc36E,@function
_ZN42_$LT$$RF$T$u20$as$u20$core..fmt..Debug$GT$3fmt17h434a8ab7f020fc36E:
.Lfunc_begin20:
	.cfi_startproc
	.cfi_personality 155, DW.ref.rust_eh_personality
	.cfi_lsda 27, .Lexception20
	addi	sp, sp, -80
	.cfi_def_cfa_offset 80
	sd	ra, 72(sp)
	sd	s0, 64(sp)
	sd	s1, 56(sp)
	sd	s2, 48(sp)
	sd	s3, 40(sp)
	.cfi_offset ra, -8
	.cfi_offset s0, -16
	.cfi_offset s1, -24
	.cfi_offset s2, -32
	.cfi_offset s3, -40
	ld	s0, 0(a0)
.Lpcrel_hi145:
	auipc	a0, %pcrel_hi(.L__unnamed_59)
	addi	a2, a0, %pcrel_lo(.Lpcrel_hi145)
	mv	a0, sp
	li	a3, 5
	call	_ZN4core3fmt9Formatter12debug_struct17hc0fa802c913860d0E@plt
	li	a0, 1
.LBB56_18:
	lr.w.aq	a1, (s0)
	bnez	a1, .LBB56_4
	sc.w	a2, a0, (s0)
	bnez	a2, .LBB56_18
.Lpcrel_hi146:
	auipc	a0, %got_pcrel_hi(_ZN3std9panicking11panic_count18GLOBAL_PANIC_COUNT17h813e628f0cb26d91E)
	ld	s2, %pcrel_lo(.Lpcrel_hi146)(a0)
	ld	a0, 0(s2)
	slli	a0, a0, 1
	li	s3, -1
	bnez	a0, .LBB56_5
	li	s1, 0
	lb	a0, 4(s0)
	srli	s3, s3, 1
	beqz	a0, .LBB56_6
.LBB56_3:
	sd	s0, 16(sp)
	sb	s1, 24(sp)
	addi	a0, s0, 5
	sd	a0, 32(sp)
.Ltmp252:
.Lpcrel_hi150:
	auipc	a0, %pcrel_hi(.L__unnamed_60)
	addi	a1, a0, %pcrel_lo(.Lpcrel_hi150)
.Lpcrel_hi151:
	auipc	a0, %pcrel_hi(.L__unnamed_80)
	addi	a4, a0, %pcrel_lo(.Lpcrel_hi151)
	mv	a0, sp
	li	a2, 4
	addi	a3, sp, 32
	call	_ZN4core3fmt8builders11DebugStruct5field17h6f896db0b51e77caE@plt
.Ltmp253:
	j	.LBB56_7
.LBB56_4:
.Lpcrel_hi147:
	auipc	a0, %pcrel_hi(.L__unnamed_60)
	addi	a1, a0, %pcrel_lo(.Lpcrel_hi147)
.Lpcrel_hi148:
	auipc	a0, %pcrel_hi(.L__unnamed_15)
	addi	a3, a0, %pcrel_lo(.Lpcrel_hi148)
.Lpcrel_hi149:
	auipc	a0, %pcrel_hi(.L__unnamed_62)
	addi	a4, a0, %pcrel_lo(.Lpcrel_hi149)
	mv	a0, sp
	li	a2, 4
	call	_ZN4core3fmt8builders11DebugStruct5field17h6f896db0b51e77caE@plt
	j	.LBB56_10
.LBB56_5:
	call	_ZN3std9panicking11panic_count17is_zero_slow_path17he417053412855f77E@plt
	xori	s1, a0, 1
	lb	a0, 4(s0)
	srli	s3, s3, 1
	bnez	a0, .LBB56_3
.LBB56_6:
	addi	a0, s0, 5
	sd	a0, 16(sp)
.Ltmp257:
.Lpcrel_hi152:
	auipc	a0, %pcrel_hi(.L__unnamed_60)
	addi	a1, a0, %pcrel_lo(.Lpcrel_hi152)
.Lpcrel_hi153:
	auipc	a0, %pcrel_hi(.L__unnamed_80)
	addi	a4, a0, %pcrel_lo(.Lpcrel_hi153)
	mv	a0, sp
	li	a2, 4
	addi	a3, sp, 16
	call	_ZN4core3fmt8builders11DebugStruct5field17h6f896db0b51e77caE@plt
.Ltmp258:
.LBB56_7:
	bnez	s1, .LBB56_9
	ld	a0, 0(s2)
	and	a0, a0, s3
	bnez	a0, .LBB56_12
.LBB56_9:
	amoswap.w.rl	a0, zero, (s0)
	li	a1, 2
	beq	a0, a1, .LBB56_11
.LBB56_10:
	lb	a0, 4(s0)
	snez	a0, a0
	sb	a0, 16(sp)
.Lpcrel_hi154:
	auipc	a0, %pcrel_hi(.L__unnamed_63)
	addi	a1, a0, %pcrel_lo(.Lpcrel_hi154)
.Lpcrel_hi155:
	auipc	a0, %pcrel_hi(.L__unnamed_33)
	addi	a4, a0, %pcrel_lo(.Lpcrel_hi155)
	mv	a0, sp
	li	a2, 8
	addi	a3, sp, 16
	call	_ZN4core3fmt8builders11DebugStruct5field17h6f896db0b51e77caE@plt
	mv	a0, sp
	call	_ZN4core3fmt8builders11DebugStruct21finish_non_exhaustive17h83b2a07b490175b3E@plt
	ld	ra, 72(sp)
	ld	s0, 64(sp)
	ld	s1, 56(sp)
	ld	s2, 48(sp)
	ld	s3, 40(sp)
	addi	sp, sp, 80
	ret
.LBB56_11:
	mv	a0, s0
	call	_ZN3std3sys4unix5locks11futex_mutex5Mutex4wake17h5ccb808587248eb1E@plt
	j	.LBB56_10
.LBB56_12:
	call	_ZN3std9panicking11panic_count17is_zero_slow_path17he417053412855f77E@plt
	bnez	a0, .LBB56_9
	li	a0, 1
	sb	a0, 4(s0)
	j	.LBB56_9
.LBB56_14:
.Ltmp259:
	mv	s2, a0
.Ltmp260:
	mv	a0, s0
	mv	a1, s1
	call	_ZN4core3ptr121drop_in_place$LT$std..sync..poison..PoisonError$LT$std..sync..mutex..MutexGuard$LT$tokio..io..util..mem..Pipe$GT$$GT$$GT$17haeaff8cb67a08524E
.Ltmp261:
	j	.LBB56_16
.LBB56_15:
.Ltmp254:
	mv	s2, a0
.Ltmp255:
	addi	a0, sp, 16
	call	_ZN4core3ptr103drop_in_place$LT$std..sync..poison..PoisonError$LT$std..sync..mutex..MutexGuard$LT$$LP$$RP$$GT$$GT$$GT$17h28c052352901ef93E
.Ltmp256:
.LBB56_16:
	mv	a0, s2
	call	_Unwind_Resume@plt
	unimp	
.LBB56_17:
.Ltmp262:
	call	_ZN4core9panicking19panic_cannot_unwind17h7b6652c0f2f24b81E@plt
	unimp	
.Lfunc_end56:
	.size	_ZN42_$LT$$RF$T$u20$as$u20$core..fmt..Debug$GT$3fmt17h434a8ab7f020fc36E, .Lfunc_end56-_ZN42_$LT$$RF$T$u20$as$u20$core..fmt..Debug$GT$3fmt17h434a8ab7f020fc36E
	.cfi_endproc
	.section	".gcc_except_table._ZN42_$LT$$RF$T$u20$as$u20$core..fmt..Debug$GT$3fmt17h434a8ab7f020fc36E","a",@progbits
	.p2align	2, 0x0
GCC_except_table56:
.Lexception20:
	.byte	255
	.byte	255
	.byte	3
	.uleb128 .Lcst_end20-.Lcst_begin20
.Lcst_begin20:
	.word	.Lfunc_begin20-.Lfunc_begin20
	.word	.Ltmp252-.Lfunc_begin20
	.word	0
	.byte	0
	.word	.Ltmp252-.Lfunc_begin20
	.word	.Ltmp253-.Ltmp252
	.word	.Ltmp254-.Lfunc_begin20
	.byte	0
	.word	.Ltmp253-.Lfunc_begin20
	.word	.Ltmp257-.Ltmp253
	.word	0
	.byte	0
	.word	.Ltmp257-.Lfunc_begin20
	.word	.Ltmp258-.Ltmp257
	.word	.Ltmp259-.Lfunc_begin20
	.byte	0
	.word	.Ltmp258-.Lfunc_begin20
	.word	.Ltmp260-.Ltmp258
	.word	0
	.byte	0
	.word	.Ltmp260-.Lfunc_begin20
	.word	.Ltmp256-.Ltmp260
	.word	.Ltmp262-.Lfunc_begin20
	.byte	0
	.word	.Ltmp256-.Lfunc_begin20
	.word	.Lfunc_end56-.Ltmp256
	.word	0
	.byte	0
.Lcst_end20:
	.p2align	2, 0x0

	.section	".text._ZN42_$LT$$RF$T$u20$as$u20$core..fmt..Debug$GT$3fmt17h449c5753bae12956E","ax",@progbits
	.p2align	1
	.type	_ZN42_$LT$$RF$T$u20$as$u20$core..fmt..Debug$GT$3fmt17h449c5753bae12956E,@function
_ZN42_$LT$$RF$T$u20$as$u20$core..fmt..Debug$GT$3fmt17h449c5753bae12956E:
	.cfi_startproc
	addi	sp, sp, -16
	.cfi_def_cfa_offset 16
	sd	ra, 8(sp)
	.cfi_offset ra, -8
	ld	a2, 0(a0)
	mv	a0, a1
	sd	a2, 0(sp)
.Lpcrel_hi156:
	auipc	a1, %pcrel_hi(.L__unnamed_59)
	addi	a1, a1, %pcrel_lo(.Lpcrel_hi156)
.Lpcrel_hi157:
	auipc	a2, %pcrel_hi(.L__unnamed_81)
	addi	a4, a2, %pcrel_lo(.Lpcrel_hi157)
	li	a2, 5
	mv	a3, sp
	call	_ZN4core3fmt9Formatter25debug_tuple_field1_finish17h2c8f4c389c486260E@plt
	ld	ra, 8(sp)
	addi	sp, sp, 16
	ret
.Lfunc_end57:
	.size	_ZN42_$LT$$RF$T$u20$as$u20$core..fmt..Debug$GT$3fmt17h449c5753bae12956E, .Lfunc_end57-_ZN42_$LT$$RF$T$u20$as$u20$core..fmt..Debug$GT$3fmt17h449c5753bae12956E
	.cfi_endproc

	.section	".text._ZN42_$LT$$RF$T$u20$as$u20$core..fmt..Debug$GT$3fmt17h48042a930c7d3f16E","ax",@progbits
	.p2align	1
	.type	_ZN42_$LT$$RF$T$u20$as$u20$core..fmt..Debug$GT$3fmt17h48042a930c7d3f16E,@function
_ZN42_$LT$$RF$T$u20$as$u20$core..fmt..Debug$GT$3fmt17h48042a930c7d3f16E:
	.cfi_startproc
	ld	a0, 0(a0)
	tail	_ZN61_$LT$mio..net..udp..UdpSocket$u20$as$u20$core..fmt..Debug$GT$3fmt17h9976d1c7ce917461E@plt
.Lfunc_end58:
	.size	_ZN42_$LT$$RF$T$u20$as$u20$core..fmt..Debug$GT$3fmt17h48042a930c7d3f16E, .Lfunc_end58-_ZN42_$LT$$RF$T$u20$as$u20$core..fmt..Debug$GT$3fmt17h48042a930c7d3f16E
	.cfi_endproc

	.section	".text._ZN42_$LT$$RF$T$u20$as$u20$core..fmt..Debug$GT$3fmt17h48194378654f3845E","ax",@progbits
	.p2align	1
	.type	_ZN42_$LT$$RF$T$u20$as$u20$core..fmt..Debug$GT$3fmt17h48194378654f3845E,@function
_ZN42_$LT$$RF$T$u20$as$u20$core..fmt..Debug$GT$3fmt17h48194378654f3845E:
	.cfi_startproc
	ld	a0, 0(a0)
	tail	_ZN68_$LT$core..sync..atomic..AtomicUsize$u20$as$u20$core..fmt..Debug$GT$3fmt17h2dde0313cc7dc2e0E@plt
.Lfunc_end59:
	.size	_ZN42_$LT$$RF$T$u20$as$u20$core..fmt..Debug$GT$3fmt17h48194378654f3845E, .Lfunc_end59-_ZN42_$LT$$RF$T$u20$as$u20$core..fmt..Debug$GT$3fmt17h48194378654f3845E
	.cfi_endproc

	.section	".text._ZN42_$LT$$RF$T$u20$as$u20$core..fmt..Debug$GT$3fmt17h515e5c7c27f78e31E","ax",@progbits
	.p2align	1
	.type	_ZN42_$LT$$RF$T$u20$as$u20$core..fmt..Debug$GT$3fmt17h515e5c7c27f78e31E,@function
_ZN42_$LT$$RF$T$u20$as$u20$core..fmt..Debug$GT$3fmt17h515e5c7c27f78e31E:
	.cfi_startproc
	ld	a2, 0(a0)
	ld	a0, 0(a2)
	ld	a2, 8(a2)
	mv	a3, a1
	mv	a1, a2
	mv	a2, a3
	tail	_ZN40_$LT$str$u20$as$u20$core..fmt..Debug$GT$3fmt17hbd011296d6a8ff08E@plt
.Lfunc_end60:
	.size	_ZN42_$LT$$RF$T$u20$as$u20$core..fmt..Debug$GT$3fmt17h515e5c7c27f78e31E, .Lfunc_end60-_ZN42_$LT$$RF$T$u20$as$u20$core..fmt..Debug$GT$3fmt17h515e5c7c27f78e31E
	.cfi_endproc

	.section	".text._ZN42_$LT$$RF$T$u20$as$u20$core..fmt..Debug$GT$3fmt17h538c2d88a16afd90E","ax",@progbits
	.p2align	1
	.type	_ZN42_$LT$$RF$T$u20$as$u20$core..fmt..Debug$GT$3fmt17h538c2d88a16afd90E,@function
_ZN42_$LT$$RF$T$u20$as$u20$core..fmt..Debug$GT$3fmt17h538c2d88a16afd90E:
	.cfi_startproc
	addi	sp, sp, -48
	.cfi_def_cfa_offset 48
	sd	ra, 40(sp)
	sd	s0, 32(sp)
	.cfi_offset ra, -8
	.cfi_offset s0, -16
	ld	s0, 0(a0)
.Lpcrel_hi158:
	auipc	a0, %pcrel_hi(.L__unnamed_82)
	addi	a2, a0, %pcrel_lo(.Lpcrel_hi158)
	addi	a0, sp, 8
	li	a3, 9
	call	_ZN4core3fmt9Formatter12debug_struct17hc0fa802c913860d0E@plt
	ld	a0, 32(s0)
	fence	r, rw
	srli	a0, a0, 1
	sd	a0, 24(sp)
.Lpcrel_hi159:
	auipc	a0, %pcrel_hi(.L__unnamed_83)
	addi	a1, a0, %pcrel_lo(.Lpcrel_hi159)
.Lpcrel_hi160:
	auipc	a0, %pcrel_hi(.L__unnamed_84)
	addi	a4, a0, %pcrel_lo(.Lpcrel_hi160)
	addi	a0, sp, 8
	li	a2, 7
	addi	a3, sp, 24
	call	_ZN4core3fmt8builders11DebugStruct5field17h6f896db0b51e77caE@plt
	call	_ZN4core3fmt8builders11DebugStruct6finish17h6d43ebeff4cf57a9E@plt
	ld	ra, 40(sp)
	ld	s0, 32(sp)
	addi	sp, sp, 48
	ret
.Lfunc_end61:
	.size	_ZN42_$LT$$RF$T$u20$as$u20$core..fmt..Debug$GT$3fmt17h538c2d88a16afd90E, .Lfunc_end61-_ZN42_$LT$$RF$T$u20$as$u20$core..fmt..Debug$GT$3fmt17h538c2d88a16afd90E
	.cfi_endproc

	.section	".text._ZN42_$LT$$RF$T$u20$as$u20$core..fmt..Debug$GT$3fmt17h5489e3d24d5f6925E","ax",@progbits
	.p2align	1
	.type	_ZN42_$LT$$RF$T$u20$as$u20$core..fmt..Debug$GT$3fmt17h5489e3d24d5f6925E,@function
_ZN42_$LT$$RF$T$u20$as$u20$core..fmt..Debug$GT$3fmt17h5489e3d24d5f6925E:
	.cfi_startproc
	addi	sp, sp, -16
	.cfi_def_cfa_offset 16
	sd	ra, 8(sp)
	.cfi_offset ra, -8
	ld	a2, 0(a0)
	mv	a0, a1
	sd	a2, 0(sp)
.Lpcrel_hi161:
	auipc	a1, %pcrel_hi(.L__unnamed_59)
	addi	a1, a1, %pcrel_lo(.Lpcrel_hi161)
.Lpcrel_hi162:
	auipc	a2, %pcrel_hi(.L__unnamed_85)
	addi	a4, a2, %pcrel_lo(.Lpcrel_hi162)
	li	a2, 5
	mv	a3, sp
	call	_ZN4core3fmt9Formatter25debug_tuple_field1_finish17h2c8f4c389c486260E@plt
	ld	ra, 8(sp)
	addi	sp, sp, 16
	ret
.Lfunc_end62:
	.size	_ZN42_$LT$$RF$T$u20$as$u20$core..fmt..Debug$GT$3fmt17h5489e3d24d5f6925E, .Lfunc_end62-_ZN42_$LT$$RF$T$u20$as$u20$core..fmt..Debug$GT$3fmt17h5489e3d24d5f6925E
	.cfi_endproc

	.section	".text._ZN42_$LT$$RF$T$u20$as$u20$core..fmt..Debug$GT$3fmt17h568e6a40ed16944eE","ax",@progbits
	.p2align	1
	.type	_ZN42_$LT$$RF$T$u20$as$u20$core..fmt..Debug$GT$3fmt17h568e6a40ed16944eE,@function
_ZN42_$LT$$RF$T$u20$as$u20$core..fmt..Debug$GT$3fmt17h568e6a40ed16944eE:
	.cfi_startproc
	addi	sp, sp, -96
	.cfi_def_cfa_offset 96
	sd	ra, 88(sp)
	.cfi_offset ra, -8
	mv	a0, a1
.Lpcrel_hi163:
	auipc	a1, %pcrel_hi(.L__unnamed_86)
	addi	a1, a1, %pcrel_lo(.Lpcrel_hi163)
	sd	a1, 72(sp)
	li	a1, 17
	sd	a1, 80(sp)
	addi	a1, sp, 72
	sd	a1, 56(sp)
.Lpcrel_hi164:
	auipc	a1, %pcrel_hi(_ZN44_$LT$$RF$T$u20$as$u20$core..fmt..Display$GT$3fmt17h124d4597438c904bE)
	addi	a1, a1, %pcrel_lo(.Lpcrel_hi164)
	sd	a1, 64(sp)
.Lpcrel_hi165:
	auipc	a1, %pcrel_hi(.L__unnamed_73)
	addi	a1, a1, %pcrel_lo(.Lpcrel_hi165)
	sd	a1, 24(sp)
	li	a1, 2
	sd	a1, 32(sp)
	sd	zero, 8(sp)
	addi	a1, sp, 56
	sd	a1, 40(sp)
	li	a1, 1
	sd	a1, 48(sp)
	addi	a1, sp, 8
	call	_ZN4core3fmt9Formatter9write_fmt17hc824f318ba189234E@plt
	ld	ra, 88(sp)
	addi	sp, sp, 96
	ret
.Lfunc_end63:
	.size	_ZN42_$LT$$RF$T$u20$as$u20$core..fmt..Debug$GT$3fmt17h568e6a40ed16944eE, .Lfunc_end63-_ZN42_$LT$$RF$T$u20$as$u20$core..fmt..Debug$GT$3fmt17h568e6a40ed16944eE
	.cfi_endproc

	.section	".text._ZN42_$LT$$RF$T$u20$as$u20$core..fmt..Debug$GT$3fmt17h56d8a9619530d461E","ax",@progbits
	.p2align	1
	.type	_ZN42_$LT$$RF$T$u20$as$u20$core..fmt..Debug$GT$3fmt17h56d8a9619530d461E,@function
_ZN42_$LT$$RF$T$u20$as$u20$core..fmt..Debug$GT$3fmt17h56d8a9619530d461E:
	.cfi_startproc
	addi	sp, sp, -16
	.cfi_def_cfa_offset 16
	sd	ra, 8(sp)
	.cfi_offset ra, -8
	ld	a2, 0(a0)
	ld	a3, 0(a2)
	mv	a0, a1
	addi	a1, a2, 8
	beqz	a3, .LBB64_2
	sd	a1, 0(sp)
.Lpcrel_hi168:
	auipc	a1, %pcrel_hi(.L__unnamed_87)
	addi	a1, a1, %pcrel_lo(.Lpcrel_hi168)
.Lpcrel_hi169:
	auipc	a2, %pcrel_hi(.L__unnamed_88)
	addi	a4, a2, %pcrel_lo(.Lpcrel_hi169)
	li	a2, 11
	j	.LBB64_3
.LBB64_2:
	sd	a1, 0(sp)
.Lpcrel_hi166:
	auipc	a1, %pcrel_hi(.L__unnamed_89)
	addi	a1, a1, %pcrel_lo(.Lpcrel_hi166)
.Lpcrel_hi167:
	auipc	a2, %pcrel_hi(.L__unnamed_88)
	addi	a4, a2, %pcrel_lo(.Lpcrel_hi167)
	li	a2, 13
.LBB64_3:
	mv	a3, sp
	call	_ZN4core3fmt9Formatter25debug_tuple_field1_finish17h2c8f4c389c486260E@plt
	ld	ra, 8(sp)
	addi	sp, sp, 16
	ret
.Lfunc_end64:
	.size	_ZN42_$LT$$RF$T$u20$as$u20$core..fmt..Debug$GT$3fmt17h56d8a9619530d461E, .Lfunc_end64-_ZN42_$LT$$RF$T$u20$as$u20$core..fmt..Debug$GT$3fmt17h56d8a9619530d461E
	.cfi_endproc

	.section	".text._ZN42_$LT$$RF$T$u20$as$u20$core..fmt..Debug$GT$3fmt17h58bfff31a9bc712eE","ax",@progbits
	.p2align	1
	.type	_ZN42_$LT$$RF$T$u20$as$u20$core..fmt..Debug$GT$3fmt17h58bfff31a9bc712eE,@function
_ZN42_$LT$$RF$T$u20$as$u20$core..fmt..Debug$GT$3fmt17h58bfff31a9bc712eE:
.Lfunc_begin21:
	.cfi_startproc
	.cfi_personality 155, DW.ref.rust_eh_personality
	.cfi_lsda 27, .Lexception21
	addi	sp, sp, -64
	.cfi_def_cfa_offset 64
	sd	ra, 56(sp)
	sd	s0, 48(sp)
	sd	s1, 40(sp)
	sd	s2, 32(sp)
	sd	s3, 24(sp)
	.cfi_offset ra, -8
	.cfi_offset s0, -16
	.cfi_offset s1, -24
	.cfi_offset s2, -32
	.cfi_offset s3, -40
	ld	s0, 0(a0)
.Lpcrel_hi170:
	auipc	a0, %pcrel_hi(.L__unnamed_59)
	addi	a2, a0, %pcrel_lo(.Lpcrel_hi170)
	mv	a0, sp
	li	a3, 5
	call	_ZN4core3fmt9Formatter12debug_struct17hc0fa802c913860d0E@plt
	li	a0, 1
.LBB65_18:
	lr.w.aq	a1, (s0)
	bnez	a1, .LBB65_4
	sc.w	a2, a0, (s0)
	bnez	a2, .LBB65_18
.Lpcrel_hi171:
	auipc	a0, %got_pcrel_hi(_ZN3std9panicking11panic_count18GLOBAL_PANIC_COUNT17h813e628f0cb26d91E)
	ld	s1, %pcrel_lo(.Lpcrel_hi171)(a0)
	ld	a0, 0(s1)
	slli	a0, a0, 1
	li	s2, -1
	bnez	a0, .LBB65_5
	li	s3, 0
	lb	a1, 4(s0)
	srli	s2, s2, 1
	addi	a0, s0, 8
	beqz	a1, .LBB65_6
.LBB65_3:
	sd	a0, 16(sp)
.Ltmp263:
.Lpcrel_hi175:
	auipc	a0, %pcrel_hi(.L__unnamed_60)
	addi	a1, a0, %pcrel_lo(.Lpcrel_hi175)
.Lpcrel_hi176:
	auipc	a0, %pcrel_hi(.L__unnamed_90)
	addi	a4, a0, %pcrel_lo(.Lpcrel_hi176)
	mv	a0, sp
	li	a2, 4
	addi	a3, sp, 16
	call	_ZN4core3fmt8builders11DebugStruct5field17h6f896db0b51e77caE@plt
.Ltmp264:
	j	.LBB65_7
.LBB65_4:
.Lpcrel_hi172:
	auipc	a0, %pcrel_hi(.L__unnamed_60)
	addi	a1, a0, %pcrel_lo(.Lpcrel_hi172)
.Lpcrel_hi173:
	auipc	a0, %pcrel_hi(.L__unnamed_15)
	addi	a3, a0, %pcrel_lo(.Lpcrel_hi173)
.Lpcrel_hi174:
	auipc	a0, %pcrel_hi(.L__unnamed_62)
	addi	a4, a0, %pcrel_lo(.Lpcrel_hi174)
	mv	a0, sp
	li	a2, 4
	call	_ZN4core3fmt8builders11DebugStruct5field17h6f896db0b51e77caE@plt
	j	.LBB65_10
.LBB65_5:
	call	_ZN3std9panicking11panic_count17is_zero_slow_path17he417053412855f77E@plt
	xori	s3, a0, 1
	lb	a1, 4(s0)
	srli	s2, s2, 1
	addi	a0, s0, 8
	bnez	a1, .LBB65_3
.LBB65_6:
	sd	a0, 16(sp)
.Ltmp268:
.Lpcrel_hi177:
	auipc	a0, %pcrel_hi(.L__unnamed_60)
	addi	a1, a0, %pcrel_lo(.Lpcrel_hi177)
.Lpcrel_hi178:
	auipc	a0, %pcrel_hi(.L__unnamed_90)
	addi	a4, a0, %pcrel_lo(.Lpcrel_hi178)
	mv	a0, sp
	li	a2, 4
	addi	a3, sp, 16
	call	_ZN4core3fmt8builders11DebugStruct5field17h6f896db0b51e77caE@plt
.Ltmp269:
.LBB65_7:
	bnez	s3, .LBB65_9
	ld	a0, 0(s1)
	and	a0, a0, s2
	bnez	a0, .LBB65_12
.LBB65_9:
	amoswap.w.rl	a0, zero, (s0)
	li	a1, 2
	beq	a0, a1, .LBB65_11
.LBB65_10:
	lb	a0, 4(s0)
	snez	a0, a0
	sb	a0, 16(sp)
.Lpcrel_hi179:
	auipc	a0, %pcrel_hi(.L__unnamed_63)
	addi	a1, a0, %pcrel_lo(.Lpcrel_hi179)
.Lpcrel_hi180:
	auipc	a0, %pcrel_hi(.L__unnamed_33)
	addi	a4, a0, %pcrel_lo(.Lpcrel_hi180)
	mv	a0, sp
	li	a2, 8
	addi	a3, sp, 16
	call	_ZN4core3fmt8builders11DebugStruct5field17h6f896db0b51e77caE@plt
	mv	a0, sp
	call	_ZN4core3fmt8builders11DebugStruct21finish_non_exhaustive17h83b2a07b490175b3E@plt
	ld	ra, 56(sp)
	ld	s0, 48(sp)
	ld	s1, 40(sp)
	ld	s2, 32(sp)
	ld	s3, 24(sp)
	addi	sp, sp, 64
	ret
.LBB65_11:
	mv	a0, s0
	call	_ZN3std3sys4unix5locks11futex_mutex5Mutex4wake17h5ccb808587248eb1E@plt
	j	.LBB65_10
.LBB65_12:
	call	_ZN3std9panicking11panic_count17is_zero_slow_path17he417053412855f77E@plt
	bnez	a0, .LBB65_9
	li	a0, 1
	sb	a0, 4(s0)
	j	.LBB65_9
.LBB65_14:
.Ltmp270:
	mv	s2, a0
.Ltmp271:
	mv	a0, s0
	mv	a1, s3
	call	_ZN4core3ptr121drop_in_place$LT$std..sync..poison..PoisonError$LT$std..sync..mutex..MutexGuard$LT$tokio..io..util..mem..Pipe$GT$$GT$$GT$17haeaff8cb67a08524E
.Ltmp272:
	j	.LBB65_16
.LBB65_15:
.Ltmp265:
	mv	s2, a0
.Ltmp266:
	mv	a0, s0
	mv	a1, s3
	call	_ZN4core3ptr121drop_in_place$LT$std..sync..poison..PoisonError$LT$std..sync..mutex..MutexGuard$LT$tokio..io..util..mem..Pipe$GT$$GT$$GT$17haeaff8cb67a08524E
.Ltmp267:
.LBB65_16:
	mv	a0, s2
	call	_Unwind_Resume@plt
	unimp	
.LBB65_17:
.Ltmp273:
	call	_ZN4core9panicking19panic_cannot_unwind17h7b6652c0f2f24b81E@plt
	unimp	
.Lfunc_end65:
	.size	_ZN42_$LT$$RF$T$u20$as$u20$core..fmt..Debug$GT$3fmt17h58bfff31a9bc712eE, .Lfunc_end65-_ZN42_$LT$$RF$T$u20$as$u20$core..fmt..Debug$GT$3fmt17h58bfff31a9bc712eE
	.cfi_endproc
	.section	".gcc_except_table._ZN42_$LT$$RF$T$u20$as$u20$core..fmt..Debug$GT$3fmt17h58bfff31a9bc712eE","a",@progbits
	.p2align	2, 0x0
GCC_except_table65:
.Lexception21:
	.byte	255
	.byte	255
	.byte	3
	.uleb128 .Lcst_end21-.Lcst_begin21
.Lcst_begin21:
	.word	.Lfunc_begin21-.Lfunc_begin21
	.word	.Ltmp263-.Lfunc_begin21
	.word	0
	.byte	0
	.word	.Ltmp263-.Lfunc_begin21
	.word	.Ltmp264-.Ltmp263
	.word	.Ltmp265-.Lfunc_begin21
	.byte	0
	.word	.Ltmp264-.Lfunc_begin21
	.word	.Ltmp268-.Ltmp264
	.word	0
	.byte	0
	.word	.Ltmp268-.Lfunc_begin21
	.word	.Ltmp269-.Ltmp268
	.word	.Ltmp270-.Lfunc_begin21
	.byte	0
	.word	.Ltmp269-.Lfunc_begin21
	.word	.Ltmp271-.Ltmp269
	.word	0
	.byte	0
	.word	.Ltmp271-.Lfunc_begin21
	.word	.Ltmp267-.Ltmp271
	.word	.Ltmp273-.Lfunc_begin21
	.byte	0
	.word	.Ltmp267-.Lfunc_begin21
	.word	.Lfunc_end65-.Ltmp267
	.word	0
	.byte	0
.Lcst_end21:
	.p2align	2, 0x0

	.section	".text._ZN42_$LT$$RF$T$u20$as$u20$core..fmt..Debug$GT$3fmt17h5b5b3fa39773b358E","ax",@progbits
	.p2align	1
	.type	_ZN42_$LT$$RF$T$u20$as$u20$core..fmt..Debug$GT$3fmt17h5b5b3fa39773b358E,@function
_ZN42_$LT$$RF$T$u20$as$u20$core..fmt..Debug$GT$3fmt17h5b5b3fa39773b358E:
	.cfi_startproc
	addi	sp, sp, -16
	.cfi_def_cfa_offset 16
	sd	ra, 8(sp)
	.cfi_offset ra, -8
	ld	a0, 0(a0)
	ld	a2, 0(a0)
	mv	a0, a1
	addi	a2, a2, 16
	sd	a2, 0(sp)
.Lpcrel_hi181:
	auipc	a1, %pcrel_hi(.L__unnamed_59)
	addi	a1, a1, %pcrel_lo(.Lpcrel_hi181)
.Lpcrel_hi182:
	auipc	a2, %pcrel_hi(.L__unnamed_91)
	addi	a4, a2, %pcrel_lo(.Lpcrel_hi182)
	li	a2, 5
	mv	a3, sp
	call	_ZN4core3fmt9Formatter25debug_tuple_field1_finish17h2c8f4c389c486260E@plt
	ld	ra, 8(sp)
	addi	sp, sp, 16
	ret
.Lfunc_end66:
	.size	_ZN42_$LT$$RF$T$u20$as$u20$core..fmt..Debug$GT$3fmt17h5b5b3fa39773b358E, .Lfunc_end66-_ZN42_$LT$$RF$T$u20$as$u20$core..fmt..Debug$GT$3fmt17h5b5b3fa39773b358E
	.cfi_endproc

	.section	".text._ZN42_$LT$$RF$T$u20$as$u20$core..fmt..Debug$GT$3fmt17h5d68d1dd488e559aE","ax",@progbits
	.p2align	1
	.type	_ZN42_$LT$$RF$T$u20$as$u20$core..fmt..Debug$GT$3fmt17h5d68d1dd488e559aE,@function
_ZN42_$LT$$RF$T$u20$as$u20$core..fmt..Debug$GT$3fmt17h5d68d1dd488e559aE:
	.cfi_startproc
	ld	a0, 0(a0)
	tail	_ZN71_$LT$core..net..socket_addr..SocketAddr$u20$as$u20$core..fmt..Debug$GT$3fmt17hcfef54ce9004727eE@plt
.Lfunc_end67:
	.size	_ZN42_$LT$$RF$T$u20$as$u20$core..fmt..Debug$GT$3fmt17h5d68d1dd488e559aE, .Lfunc_end67-_ZN42_$LT$$RF$T$u20$as$u20$core..fmt..Debug$GT$3fmt17h5d68d1dd488e559aE
	.cfi_endproc

	.section	".text._ZN42_$LT$$RF$T$u20$as$u20$core..fmt..Debug$GT$3fmt17h5edddeb7b4cd9e85E","ax",@progbits
	.p2align	1
	.type	_ZN42_$LT$$RF$T$u20$as$u20$core..fmt..Debug$GT$3fmt17h5edddeb7b4cd9e85E,@function
_ZN42_$LT$$RF$T$u20$as$u20$core..fmt..Debug$GT$3fmt17h5edddeb7b4cd9e85E:
	.cfi_startproc
	addi	sp, sp, -48
	.cfi_def_cfa_offset 48
	sd	ra, 40(sp)
	sd	s0, 32(sp)
	.cfi_offset ra, -8
	.cfi_offset s0, -16
	ld	s0, 0(a0)
.Lpcrel_hi183:
	auipc	a0, %pcrel_hi(.L__unnamed_92)
	addi	a2, a0, %pcrel_lo(.Lpcrel_hi183)
	addi	a0, sp, 8
	li	a3, 4
	call	_ZN4core3fmt9Formatter12debug_struct17hc0fa802c913860d0E@plt
	lw	a0, 0(s0)
	sw	a0, 28(sp)
.Lpcrel_hi184:
	auipc	a0, %pcrel_hi(.L__unnamed_93)
	addi	a1, a0, %pcrel_lo(.Lpcrel_hi184)
.Lpcrel_hi185:
	auipc	a0, %pcrel_hi(.L__unnamed_94)
	addi	a4, a0, %pcrel_lo(.Lpcrel_hi185)
	addi	a0, sp, 8
	li	a2, 5
	addi	a3, sp, 28
	call	_ZN4core3fmt8builders11DebugStruct5field17h6f896db0b51e77caE@plt
	call	_ZN4core3fmt8builders11DebugStruct6finish17h6d43ebeff4cf57a9E@plt
	ld	ra, 40(sp)
	ld	s0, 32(sp)
	addi	sp, sp, 48
	ret
.Lfunc_end68:
	.size	_ZN42_$LT$$RF$T$u20$as$u20$core..fmt..Debug$GT$3fmt17h5edddeb7b4cd9e85E, .Lfunc_end68-_ZN42_$LT$$RF$T$u20$as$u20$core..fmt..Debug$GT$3fmt17h5edddeb7b4cd9e85E
	.cfi_endproc

	.section	".text._ZN42_$LT$$RF$T$u20$as$u20$core..fmt..Debug$GT$3fmt17h5eee1e22baf8ff1aE","ax",@progbits
	.p2align	1
	.type	_ZN42_$LT$$RF$T$u20$as$u20$core..fmt..Debug$GT$3fmt17h5eee1e22baf8ff1aE,@function
_ZN42_$LT$$RF$T$u20$as$u20$core..fmt..Debug$GT$3fmt17h5eee1e22baf8ff1aE:
	.cfi_startproc
	addi	sp, sp, -16
	.cfi_def_cfa_offset 16
	sd	ra, 8(sp)
	.cfi_offset ra, -8
	ld	a2, 0(a0)
	mv	a0, a1
	sd	a2, 0(sp)
.Lpcrel_hi186:
	auipc	a1, %pcrel_hi(.L__unnamed_54)
	addi	a1, a1, %pcrel_lo(.Lpcrel_hi186)
.Lpcrel_hi187:
	auipc	a2, %pcrel_hi(.L__unnamed_39)
	addi	a3, a2, %pcrel_lo(.Lpcrel_hi187)
.Lpcrel_hi188:
	auipc	a2, %pcrel_hi(.L__unnamed_95)
	addi	a6, a2, %pcrel_lo(.Lpcrel_hi188)
	li	a2, 8
	li	a4, 5
	mv	a5, sp
	call	_ZN4core3fmt9Formatter26debug_struct_field1_finish17h3c40263cb759e37bE@plt
	ld	ra, 8(sp)
	addi	sp, sp, 16
	ret
.Lfunc_end69:
	.size	_ZN42_$LT$$RF$T$u20$as$u20$core..fmt..Debug$GT$3fmt17h5eee1e22baf8ff1aE, .Lfunc_end69-_ZN42_$LT$$RF$T$u20$as$u20$core..fmt..Debug$GT$3fmt17h5eee1e22baf8ff1aE
	.cfi_endproc

	.section	".text._ZN42_$LT$$RF$T$u20$as$u20$core..fmt..Debug$GT$3fmt17h5f05f78bc8afba5cE","ax",@progbits
	.p2align	1
	.type	_ZN42_$LT$$RF$T$u20$as$u20$core..fmt..Debug$GT$3fmt17h5f05f78bc8afba5cE,@function
_ZN42_$LT$$RF$T$u20$as$u20$core..fmt..Debug$GT$3fmt17h5f05f78bc8afba5cE:
	.cfi_startproc
	addi	sp, sp, -16
	.cfi_def_cfa_offset 16
	sd	ra, 8(sp)
	.cfi_offset ra, -8
	ld	a2, 0(a0)
	ld	a3, 0(a2)
	li	a4, 2
	mv	a0, a1
	bne	a3, a4, .LBB70_2
.Lpcrel_hi189:
	auipc	a1, %pcrel_hi(.L__unnamed_67)
	addi	a1, a1, %pcrel_lo(.Lpcrel_hi189)
	li	a2, 4
	ld	ra, 8(sp)
	addi	sp, sp, 16
	tail	_ZN4core3fmt9Formatter9write_str17h6a12f92004fea676E@plt
.LBB70_2:
	sd	a2, 0(sp)
.Lpcrel_hi190:
	auipc	a1, %pcrel_hi(.L__unnamed_65)
	addi	a1, a1, %pcrel_lo(.Lpcrel_hi190)
.Lpcrel_hi191:
	auipc	a2, %pcrel_hi(.L__unnamed_96)
	addi	a4, a2, %pcrel_lo(.Lpcrel_hi191)
	li	a2, 4
	mv	a3, sp
	call	_ZN4core3fmt9Formatter25debug_tuple_field1_finish17h2c8f4c389c486260E@plt
	ld	ra, 8(sp)
	addi	sp, sp, 16
	ret
.Lfunc_end70:
	.size	_ZN42_$LT$$RF$T$u20$as$u20$core..fmt..Debug$GT$3fmt17h5f05f78bc8afba5cE, .Lfunc_end70-_ZN42_$LT$$RF$T$u20$as$u20$core..fmt..Debug$GT$3fmt17h5f05f78bc8afba5cE
	.cfi_endproc

	.section	".text._ZN42_$LT$$RF$T$u20$as$u20$core..fmt..Debug$GT$3fmt17h5f66610df96b9be5E","ax",@progbits
	.p2align	1
	.type	_ZN42_$LT$$RF$T$u20$as$u20$core..fmt..Debug$GT$3fmt17h5f66610df96b9be5E,@function
_ZN42_$LT$$RF$T$u20$as$u20$core..fmt..Debug$GT$3fmt17h5f66610df96b9be5E:
	.cfi_startproc
	addi	sp, sp, -32
	.cfi_def_cfa_offset 32
	sd	ra, 24(sp)
	sd	s0, 16(sp)
	sd	s1, 8(sp)
	.cfi_offset ra, -8
	.cfi_offset s0, -16
	.cfi_offset s1, -24
	ld	s1, 0(a0)
	mv	s0, a1
	mv	a0, a1
	call	_ZN4core3fmt9Formatter15debug_lower_hex17h997a8feb780e79d7E@plt
	beqz	a0, .LBB71_2
	mv	a0, s1
	mv	a1, s0
	ld	ra, 24(sp)
	ld	s0, 16(sp)
	ld	s1, 8(sp)
	addi	sp, sp, 32
	tail	_ZN4core3fmt3num53_$LT$impl$u20$core..fmt..LowerHex$u20$for$u20$u16$GT$3fmt17h550ffd8a6e0dc5bdE@plt
.LBB71_2:
	mv	a0, s0
	call	_ZN4core3fmt9Formatter15debug_upper_hex17he827cad4c6077043E@plt
	beqz	a0, .LBB71_4
	mv	a0, s1
	mv	a1, s0
	ld	ra, 24(sp)
	ld	s0, 16(sp)
	ld	s1, 8(sp)
	addi	sp, sp, 32
	tail	_ZN4core3fmt3num53_$LT$impl$u20$core..fmt..UpperHex$u20$for$u20$u16$GT$3fmt17h94eb0df48a4edf5eE@plt
.LBB71_4:
	mv	a0, s1
	mv	a1, s0
	ld	ra, 24(sp)
	ld	s0, 16(sp)
	ld	s1, 8(sp)
	addi	sp, sp, 32
	tail	_ZN4core3fmt3num3imp52_$LT$impl$u20$core..fmt..Display$u20$for$u20$u16$GT$3fmt17hcfc130813ae23188E@plt
.Lfunc_end71:
	.size	_ZN42_$LT$$RF$T$u20$as$u20$core..fmt..Debug$GT$3fmt17h5f66610df96b9be5E, .Lfunc_end71-_ZN42_$LT$$RF$T$u20$as$u20$core..fmt..Debug$GT$3fmt17h5f66610df96b9be5E
	.cfi_endproc

	.section	".text._ZN42_$LT$$RF$T$u20$as$u20$core..fmt..Debug$GT$3fmt17h62aef53b2fb82965E","ax",@progbits
	.p2align	1
	.type	_ZN42_$LT$$RF$T$u20$as$u20$core..fmt..Debug$GT$3fmt17h62aef53b2fb82965E,@function
_ZN42_$LT$$RF$T$u20$as$u20$core..fmt..Debug$GT$3fmt17h62aef53b2fb82965E:
	.cfi_startproc
	addi	sp, sp, -32
	.cfi_def_cfa_offset 32
	sd	ra, 24(sp)
	sd	s0, 16(sp)
	.cfi_offset ra, -8
	.cfi_offset s0, -16
	ld	a0, 0(a0)
	ld	s0, 0(a0)
.Lpcrel_hi192:
	auipc	a0, %pcrel_hi(.L__unnamed_28)
	addi	a2, a0, %pcrel_lo(.Lpcrel_hi192)
	mv	a0, sp
	li	a3, 11
	call	_ZN4core3fmt9Formatter12debug_struct17hc0fa802c913860d0E@plt
	addi	a3, s0, 16
.Lpcrel_hi193:
	auipc	a0, %pcrel_hi(.L__unnamed_29)
	addi	a1, a0, %pcrel_lo(.Lpcrel_hi193)
.Lpcrel_hi194:
	auipc	a0, %pcrel_hi(.L__unnamed_30)
	addi	a4, a0, %pcrel_lo(.Lpcrel_hi194)
	mv	a0, sp
	li	a2, 2
	call	_ZN4core3fmt8builders11DebugStruct5field17h6f896db0b51e77caE@plt
	call	_ZN4core3fmt8builders11DebugStruct6finish17h6d43ebeff4cf57a9E@plt
	ld	ra, 24(sp)
	ld	s0, 16(sp)
	addi	sp, sp, 32
	ret
.Lfunc_end72:
	.size	_ZN42_$LT$$RF$T$u20$as$u20$core..fmt..Debug$GT$3fmt17h62aef53b2fb82965E, .Lfunc_end72-_ZN42_$LT$$RF$T$u20$as$u20$core..fmt..Debug$GT$3fmt17h62aef53b2fb82965E
	.cfi_endproc

	.section	".text._ZN42_$LT$$RF$T$u20$as$u20$core..fmt..Debug$GT$3fmt17h62cdff89bac05b60E","ax",@progbits
	.p2align	1
	.type	_ZN42_$LT$$RF$T$u20$as$u20$core..fmt..Debug$GT$3fmt17h62cdff89bac05b60E,@function
_ZN42_$LT$$RF$T$u20$as$u20$core..fmt..Debug$GT$3fmt17h62cdff89bac05b60E:
	.cfi_startproc
	addi	sp, sp, -32
	.cfi_def_cfa_offset 32
	sd	ra, 24(sp)
	.cfi_offset ra, -8
.Lpcrel_hi195:
	auipc	a0, %pcrel_hi(.L__unnamed_89)
	addi	a2, a0, %pcrel_lo(.Lpcrel_hi195)
	addi	a0, sp, 8
	li	a3, 13
	call	_ZN4core3fmt9Formatter12debug_struct17hc0fa802c913860d0E@plt
	addi	a0, sp, 8
	call	_ZN4core3fmt8builders11DebugStruct6finish17h6d43ebeff4cf57a9E@plt
	ld	ra, 24(sp)
	addi	sp, sp, 32
	ret
.Lfunc_end73:
	.size	_ZN42_$LT$$RF$T$u20$as$u20$core..fmt..Debug$GT$3fmt17h62cdff89bac05b60E, .Lfunc_end73-_ZN42_$LT$$RF$T$u20$as$u20$core..fmt..Debug$GT$3fmt17h62cdff89bac05b60E
	.cfi_endproc

	.section	".text._ZN42_$LT$$RF$T$u20$as$u20$core..fmt..Debug$GT$3fmt17h6c7578455a2fa075E","ax",@progbits
	.p2align	1
	.type	_ZN42_$LT$$RF$T$u20$as$u20$core..fmt..Debug$GT$3fmt17h6c7578455a2fa075E,@function
_ZN42_$LT$$RF$T$u20$as$u20$core..fmt..Debug$GT$3fmt17h6c7578455a2fa075E:
	.cfi_startproc
	addi	sp, sp, -16
	.cfi_def_cfa_offset 16
	sd	ra, 8(sp)
	.cfi_offset ra, -8
	ld	a2, 0(a0)
	lbu	a3, 0(a2)
	mv	a0, a1
	beqz	a3, .LBB74_2
	addi	a2, a2, 1
	sd	a2, 0(sp)
.Lpcrel_hi197:
	auipc	a1, %pcrel_hi(.L__unnamed_65)
	addi	a1, a1, %pcrel_lo(.Lpcrel_hi197)
.Lpcrel_hi198:
	auipc	a2, %pcrel_hi(.L__unnamed_97)
	addi	a4, a2, %pcrel_lo(.Lpcrel_hi198)
	li	a2, 4
	mv	a3, sp
	call	_ZN4core3fmt9Formatter25debug_tuple_field1_finish17h2c8f4c389c486260E@plt
	ld	ra, 8(sp)
	addi	sp, sp, 16
	ret
.LBB74_2:
.Lpcrel_hi196:
	auipc	a1, %pcrel_hi(.L__unnamed_67)
	addi	a1, a1, %pcrel_lo(.Lpcrel_hi196)
	li	a2, 4
	ld	ra, 8(sp)
	addi	sp, sp, 16
	tail	_ZN4core3fmt9Formatter9write_str17h6a12f92004fea676E@plt
.Lfunc_end74:
	.size	_ZN42_$LT$$RF$T$u20$as$u20$core..fmt..Debug$GT$3fmt17h6c7578455a2fa075E, .Lfunc_end74-_ZN42_$LT$$RF$T$u20$as$u20$core..fmt..Debug$GT$3fmt17h6c7578455a2fa075E
	.cfi_endproc

	.section	".text._ZN42_$LT$$RF$T$u20$as$u20$core..fmt..Debug$GT$3fmt17h6cd338a24cf4f4a8E","ax",@progbits
	.p2align	1
	.type	_ZN42_$LT$$RF$T$u20$as$u20$core..fmt..Debug$GT$3fmt17h6cd338a24cf4f4a8E,@function
_ZN42_$LT$$RF$T$u20$as$u20$core..fmt..Debug$GT$3fmt17h6cd338a24cf4f4a8E:
	.cfi_startproc
	addi	sp, sp, -16
	.cfi_def_cfa_offset 16
	sd	ra, 8(sp)
	.cfi_offset ra, -8
	ld	a2, 0(a0)
	mv	a0, a1
	sd	a2, 0(sp)
.Lpcrel_hi199:
	auipc	a1, %pcrel_hi(.L__unnamed_98)
	addi	a1, a1, %pcrel_lo(.Lpcrel_hi199)
.Lpcrel_hi200:
	auipc	a2, %pcrel_hi(.L__unnamed_39)
	addi	a3, a2, %pcrel_lo(.Lpcrel_hi200)
.Lpcrel_hi201:
	auipc	a2, %pcrel_hi(.L__unnamed_99)
	addi	a6, a2, %pcrel_lo(.Lpcrel_hi201)
	li	a2, 8
	li	a4, 5
	mv	a5, sp
	call	_ZN4core3fmt9Formatter26debug_struct_field1_finish17h3c40263cb759e37bE@plt
	ld	ra, 8(sp)
	addi	sp, sp, 16
	ret
.Lfunc_end75:
	.size	_ZN42_$LT$$RF$T$u20$as$u20$core..fmt..Debug$GT$3fmt17h6cd338a24cf4f4a8E, .Lfunc_end75-_ZN42_$LT$$RF$T$u20$as$u20$core..fmt..Debug$GT$3fmt17h6cd338a24cf4f4a8E
	.cfi_endproc

	.section	".text._ZN42_$LT$$RF$T$u20$as$u20$core..fmt..Debug$GT$3fmt17h6d41484e64542a3bE","ax",@progbits
	.p2align	1
	.type	_ZN42_$LT$$RF$T$u20$as$u20$core..fmt..Debug$GT$3fmt17h6d41484e64542a3bE,@function
_ZN42_$LT$$RF$T$u20$as$u20$core..fmt..Debug$GT$3fmt17h6d41484e64542a3bE:
	.cfi_startproc
	addi	sp, sp, -64
	.cfi_def_cfa_offset 64
	sd	ra, 56(sp)
	sd	s0, 48(sp)
	sd	s1, 40(sp)
	sd	s2, 32(sp)
	sd	s3, 24(sp)
	.cfi_offset ra, -8
	.cfi_offset s0, -16
	.cfi_offset s1, -24
	.cfi_offset s2, -32
	.cfi_offset s3, -40
	ld	a0, 0(a0)
	ld	s0, 0(a0)
	ld	s1, 8(a0)
	mv	a0, sp
	call	_ZN4core3fmt9Formatter10debug_list17h5e46ac31e8c80249E@plt
	beqz	s1, .LBB76_3
.Lpcrel_hi202:
	auipc	a0, %pcrel_hi(.L__unnamed_97)
	addi	s2, a0, %pcrel_lo(.Lpcrel_hi202)
.LBB76_2:
	addi	s3, s0, 1
	sd	s0, 16(sp)
	mv	a0, sp
	addi	a1, sp, 16
	mv	a2, s2
	call	_ZN4core3fmt8builders9DebugList5entry17hd64fa0b2676db736E@plt
	addi	s1, s1, -1
	mv	s0, s3
	bnez	s1, .LBB76_2
.LBB76_3:
	mv	a0, sp
	call	_ZN4core3fmt8builders9DebugList6finish17h99f6b388c88c0b5dE@plt
	ld	ra, 56(sp)
	ld	s0, 48(sp)
	ld	s1, 40(sp)
	ld	s2, 32(sp)
	ld	s3, 24(sp)
	addi	sp, sp, 64
	ret
.Lfunc_end76:
	.size	_ZN42_$LT$$RF$T$u20$as$u20$core..fmt..Debug$GT$3fmt17h6d41484e64542a3bE, .Lfunc_end76-_ZN42_$LT$$RF$T$u20$as$u20$core..fmt..Debug$GT$3fmt17h6d41484e64542a3bE
	.cfi_endproc

	.section	".text._ZN42_$LT$$RF$T$u20$as$u20$core..fmt..Debug$GT$3fmt17h6d85ce5d3c38f4dbE","ax",@progbits
	.p2align	1
	.type	_ZN42_$LT$$RF$T$u20$as$u20$core..fmt..Debug$GT$3fmt17h6d85ce5d3c38f4dbE,@function
_ZN42_$LT$$RF$T$u20$as$u20$core..fmt..Debug$GT$3fmt17h6d85ce5d3c38f4dbE:
	.cfi_startproc
	ld	a0, 0(a0)
	tail	_ZN70_$LT$mio..net..uds..stream..UnixStream$u20$as$u20$core..fmt..Debug$GT$3fmt17he718d71260e113e5E@plt
.Lfunc_end77:
	.size	_ZN42_$LT$$RF$T$u20$as$u20$core..fmt..Debug$GT$3fmt17h6d85ce5d3c38f4dbE, .Lfunc_end77-_ZN42_$LT$$RF$T$u20$as$u20$core..fmt..Debug$GT$3fmt17h6d85ce5d3c38f4dbE
	.cfi_endproc

	.section	".text._ZN42_$LT$$RF$T$u20$as$u20$core..fmt..Debug$GT$3fmt17h739533bd767aa7aeE","ax",@progbits
	.p2align	1
	.type	_ZN42_$LT$$RF$T$u20$as$u20$core..fmt..Debug$GT$3fmt17h739533bd767aa7aeE,@function
_ZN42_$LT$$RF$T$u20$as$u20$core..fmt..Debug$GT$3fmt17h739533bd767aa7aeE:
	.cfi_startproc
	ld	a0, 0(a0)
	tail	_ZN43_$LT$bool$u20$as$u20$core..fmt..Display$GT$3fmt17hd81dd32bb63dfe88E@plt
.Lfunc_end78:
	.size	_ZN42_$LT$$RF$T$u20$as$u20$core..fmt..Debug$GT$3fmt17h739533bd767aa7aeE, .Lfunc_end78-_ZN42_$LT$$RF$T$u20$as$u20$core..fmt..Debug$GT$3fmt17h739533bd767aa7aeE
	.cfi_endproc

	.section	".text._ZN42_$LT$$RF$T$u20$as$u20$core..fmt..Debug$GT$3fmt17h73f012647a6807f1E","ax",@progbits
	.p2align	1
	.type	_ZN42_$LT$$RF$T$u20$as$u20$core..fmt..Debug$GT$3fmt17h73f012647a6807f1E,@function
_ZN42_$LT$$RF$T$u20$as$u20$core..fmt..Debug$GT$3fmt17h73f012647a6807f1E:
	.cfi_startproc
	addi	sp, sp, -48
	.cfi_def_cfa_offset 48
	sd	ra, 40(sp)
	.cfi_offset ra, -8
	ld	a5, 0(a0)
	mv	a0, a1
	addi	a1, a5, 8
	sd	a1, 32(sp)
.Lpcrel_hi203:
	auipc	a1, %pcrel_hi(.L__unnamed_100)
	addi	a1, a1, %pcrel_lo(.Lpcrel_hi203)
	sd	a1, 16(sp)
	addi	a1, sp, 32
	sd	a1, 8(sp)
	li	t0, 7
.Lpcrel_hi204:
	auipc	a1, %pcrel_hi(.L__unnamed_101)
	addi	a1, a1, %pcrel_lo(.Lpcrel_hi204)
.Lpcrel_hi205:
	auipc	a2, %pcrel_hi(.L__unnamed_70)
	addi	a3, a2, %pcrel_lo(.Lpcrel_hi205)
.Lpcrel_hi206:
	auipc	a2, %pcrel_hi(.L__unnamed_102)
	addi	a6, a2, %pcrel_lo(.Lpcrel_hi206)
.Lpcrel_hi207:
	auipc	a2, %pcrel_hi(.L__unnamed_103)
	addi	a7, a2, %pcrel_lo(.Lpcrel_hi207)
	li	a2, 6
	li	a4, 5
	sd	t0, 0(sp)
	call	_ZN4core3fmt9Formatter26debug_struct_field2_finish17h5ce2a2aff4d0f3e2E@plt
	ld	ra, 40(sp)
	addi	sp, sp, 48
	ret
.Lfunc_end79:
	.size	_ZN42_$LT$$RF$T$u20$as$u20$core..fmt..Debug$GT$3fmt17h73f012647a6807f1E, .Lfunc_end79-_ZN42_$LT$$RF$T$u20$as$u20$core..fmt..Debug$GT$3fmt17h73f012647a6807f1E
	.cfi_endproc

	.section	".text._ZN42_$LT$$RF$T$u20$as$u20$core..fmt..Debug$GT$3fmt17h74c8fa55e7e544e3E","ax",@progbits
	.p2align	1
	.type	_ZN42_$LT$$RF$T$u20$as$u20$core..fmt..Debug$GT$3fmt17h74c8fa55e7e544e3E,@function
_ZN42_$LT$$RF$T$u20$as$u20$core..fmt..Debug$GT$3fmt17h74c8fa55e7e544e3E:
	.cfi_startproc
	addi	sp, sp, -16
	.cfi_def_cfa_offset 16
	sd	ra, 8(sp)
	.cfi_offset ra, -8
	ld	a2, 0(a0)
	lbu	a3, 0(a2)
	mv	a0, a1
	beqz	a3, .LBB80_2
	sd	a2, 0(sp)
.Lpcrel_hi210:
	auipc	a1, %pcrel_hi(.L__unnamed_104)
	addi	a1, a1, %pcrel_lo(.Lpcrel_hi210)
.Lpcrel_hi211:
	auipc	a2, %pcrel_hi(.L__unnamed_105)
	addi	a4, a2, %pcrel_lo(.Lpcrel_hi211)
	li	a2, 3
	j	.LBB80_3
.LBB80_2:
	sd	a2, 0(sp)
.Lpcrel_hi208:
	auipc	a1, %pcrel_hi(.L__unnamed_106)
	addi	a1, a1, %pcrel_lo(.Lpcrel_hi208)
.Lpcrel_hi209:
	auipc	a2, %pcrel_hi(.L__unnamed_80)
	addi	a4, a2, %pcrel_lo(.Lpcrel_hi209)
	li	a2, 2
.LBB80_3:
	mv	a3, sp
	call	_ZN4core3fmt9Formatter25debug_tuple_field1_finish17h2c8f4c389c486260E@plt
	ld	ra, 8(sp)
	addi	sp, sp, 16
	ret
.Lfunc_end80:
	.size	_ZN42_$LT$$RF$T$u20$as$u20$core..fmt..Debug$GT$3fmt17h74c8fa55e7e544e3E, .Lfunc_end80-_ZN42_$LT$$RF$T$u20$as$u20$core..fmt..Debug$GT$3fmt17h74c8fa55e7e544e3E
	.cfi_endproc

	.section	".text._ZN42_$LT$$RF$T$u20$as$u20$core..fmt..Debug$GT$3fmt17h764bb5cab283ef5aE","ax",@progbits
	.p2align	1
	.type	_ZN42_$LT$$RF$T$u20$as$u20$core..fmt..Debug$GT$3fmt17h764bb5cab283ef5aE,@function
_ZN42_$LT$$RF$T$u20$as$u20$core..fmt..Debug$GT$3fmt17h764bb5cab283ef5aE:
	.cfi_startproc
	addi	sp, sp, -16
	.cfi_def_cfa_offset 16
	sd	ra, 8(sp)
	.cfi_offset ra, -8
	ld	a2, 0(a0)
	mv	a0, a1
	sd	a2, 0(sp)
.Lpcrel_hi212:
	auipc	a1, %pcrel_hi(.L__unnamed_107)
	addi	a1, a1, %pcrel_lo(.Lpcrel_hi212)
.Lpcrel_hi213:
	auipc	a2, %pcrel_hi(.L__unnamed_108)
	addi	a3, a2, %pcrel_lo(.Lpcrel_hi213)
.Lpcrel_hi214:
	auipc	a2, %pcrel_hi(.L__unnamed_109)
	addi	a6, a2, %pcrel_lo(.Lpcrel_hi214)
	li	a2, 6
	li	a4, 7
	mv	a5, sp
	call	_ZN4core3fmt9Formatter26debug_struct_field1_finish17h3c40263cb759e37bE@plt
	ld	ra, 8(sp)
	addi	sp, sp, 16
	ret
.Lfunc_end81:
	.size	_ZN42_$LT$$RF$T$u20$as$u20$core..fmt..Debug$GT$3fmt17h764bb5cab283ef5aE, .Lfunc_end81-_ZN42_$LT$$RF$T$u20$as$u20$core..fmt..Debug$GT$3fmt17h764bb5cab283ef5aE
	.cfi_endproc

	.section	".text._ZN42_$LT$$RF$T$u20$as$u20$core..fmt..Debug$GT$3fmt17h79e444bfbb631dfeE","ax",@progbits
	.p2align	1
	.type	_ZN42_$LT$$RF$T$u20$as$u20$core..fmt..Debug$GT$3fmt17h79e444bfbb631dfeE,@function
_ZN42_$LT$$RF$T$u20$as$u20$core..fmt..Debug$GT$3fmt17h79e444bfbb631dfeE:
	.cfi_startproc
	addi	sp, sp, -32
	.cfi_def_cfa_offset 32
	sd	ra, 24(sp)
	.cfi_offset ra, -8
.Lpcrel_hi215:
	auipc	a0, %pcrel_hi(.L__unnamed_110)
	addi	a2, a0, %pcrel_lo(.Lpcrel_hi215)
	addi	a0, sp, 8
	li	a3, 7
	call	_ZN4core3fmt9Formatter12debug_struct17hc0fa802c913860d0E@plt
	addi	a0, sp, 8
	call	_ZN4core3fmt8builders11DebugStruct6finish17h6d43ebeff4cf57a9E@plt
	ld	ra, 24(sp)
	addi	sp, sp, 32
	ret
.Lfunc_end82:
	.size	_ZN42_$LT$$RF$T$u20$as$u20$core..fmt..Debug$GT$3fmt17h79e444bfbb631dfeE, .Lfunc_end82-_ZN42_$LT$$RF$T$u20$as$u20$core..fmt..Debug$GT$3fmt17h79e444bfbb631dfeE
	.cfi_endproc

	.section	".text._ZN42_$LT$$RF$T$u20$as$u20$core..fmt..Debug$GT$3fmt17h7ddecd104b0e7148E","ax",@progbits
	.p2align	1
	.type	_ZN42_$LT$$RF$T$u20$as$u20$core..fmt..Debug$GT$3fmt17h7ddecd104b0e7148E,@function
_ZN42_$LT$$RF$T$u20$as$u20$core..fmt..Debug$GT$3fmt17h7ddecd104b0e7148E:
	.cfi_startproc
	addi	sp, sp, -16
	.cfi_def_cfa_offset 16
	sd	ra, 8(sp)
	.cfi_offset ra, -8
	ld	a2, 0(a0)
	ld	a3, 0(a2)
	mv	a0, a1
	beqz	a3, .LBB83_2
	sd	a2, 0(sp)
.Lpcrel_hi217:
	auipc	a1, %pcrel_hi(.L__unnamed_65)
	addi	a1, a1, %pcrel_lo(.Lpcrel_hi217)
.Lpcrel_hi218:
	auipc	a2, %pcrel_hi(.L__unnamed_111)
	addi	a4, a2, %pcrel_lo(.Lpcrel_hi218)
	li	a2, 4
	mv	a3, sp
	call	_ZN4core3fmt9Formatter25debug_tuple_field1_finish17h2c8f4c389c486260E@plt
	ld	ra, 8(sp)
	addi	sp, sp, 16
	ret
.LBB83_2:
.Lpcrel_hi216:
	auipc	a1, %pcrel_hi(.L__unnamed_67)
	addi	a1, a1, %pcrel_lo(.Lpcrel_hi216)
	li	a2, 4
	ld	ra, 8(sp)
	addi	sp, sp, 16
	tail	_ZN4core3fmt9Formatter9write_str17h6a12f92004fea676E@plt
.Lfunc_end83:
	.size	_ZN42_$LT$$RF$T$u20$as$u20$core..fmt..Debug$GT$3fmt17h7ddecd104b0e7148E, .Lfunc_end83-_ZN42_$LT$$RF$T$u20$as$u20$core..fmt..Debug$GT$3fmt17h7ddecd104b0e7148E
	.cfi_endproc

	.section	".text._ZN42_$LT$$RF$T$u20$as$u20$core..fmt..Debug$GT$3fmt17h7e4a4f0f7c1e11efE","ax",@progbits
	.p2align	1
	.type	_ZN42_$LT$$RF$T$u20$as$u20$core..fmt..Debug$GT$3fmt17h7e4a4f0f7c1e11efE,@function
_ZN42_$LT$$RF$T$u20$as$u20$core..fmt..Debug$GT$3fmt17h7e4a4f0f7c1e11efE:
	.cfi_startproc
	addi	sp, sp, -32
	.cfi_def_cfa_offset 32
	sd	ra, 24(sp)
	sd	s0, 16(sp)
	sd	s1, 8(sp)
	.cfi_offset ra, -8
	.cfi_offset s0, -16
	.cfi_offset s1, -24
	ld	s1, 0(a0)
	mv	s0, a1
	mv	a0, a1
	call	_ZN4core3fmt9Formatter15debug_lower_hex17h997a8feb780e79d7E@plt
	beqz	a0, .LBB84_2
	mv	a0, s1
	mv	a1, s0
	ld	ra, 24(sp)
	ld	s0, 16(sp)
	ld	s1, 8(sp)
	addi	sp, sp, 32
	tail	_ZN4core3fmt3num53_$LT$impl$u20$core..fmt..LowerHex$u20$for$u20$i32$GT$3fmt17h6e0a8a4afba9057aE@plt
.LBB84_2:
	mv	a0, s0
	call	_ZN4core3fmt9Formatter15debug_upper_hex17he827cad4c6077043E@plt
	beqz	a0, .LBB84_4
	mv	a0, s1
	mv	a1, s0
	ld	ra, 24(sp)
	ld	s0, 16(sp)
	ld	s1, 8(sp)
	addi	sp, sp, 32
	tail	_ZN4core3fmt3num53_$LT$impl$u20$core..fmt..UpperHex$u20$for$u20$i32$GT$3fmt17h674cfec74a226538E@plt
.LBB84_4:
	mv	a0, s1
	mv	a1, s0
	ld	ra, 24(sp)
	ld	s0, 16(sp)
	ld	s1, 8(sp)
	addi	sp, sp, 32
	tail	_ZN4core3fmt3num3imp52_$LT$impl$u20$core..fmt..Display$u20$for$u20$i32$GT$3fmt17hd3a5acb72fd0f3a8E@plt
.Lfunc_end84:
	.size	_ZN42_$LT$$RF$T$u20$as$u20$core..fmt..Debug$GT$3fmt17h7e4a4f0f7c1e11efE, .Lfunc_end84-_ZN42_$LT$$RF$T$u20$as$u20$core..fmt..Debug$GT$3fmt17h7e4a4f0f7c1e11efE
	.cfi_endproc

	.section	".text._ZN42_$LT$$RF$T$u20$as$u20$core..fmt..Debug$GT$3fmt17h8202c45e085a4c39E","ax",@progbits
	.p2align	1
	.type	_ZN42_$LT$$RF$T$u20$as$u20$core..fmt..Debug$GT$3fmt17h8202c45e085a4c39E,@function
_ZN42_$LT$$RF$T$u20$as$u20$core..fmt..Debug$GT$3fmt17h8202c45e085a4c39E:
	.cfi_startproc
	addi	sp, sp, -112
	.cfi_def_cfa_offset 112
	sd	ra, 104(sp)
	.cfi_offset ra, -8
	ld	a5, 0(a0)
	mv	a0, a1
	addi	a1, a5, 16
	addi	a2, a5, 32
	addi	a3, a5, 48
	sd	a3, 96(sp)
.Lpcrel_hi219:
	auipc	a3, %pcrel_hi(.L__unnamed_37)
	addi	a3, a3, %pcrel_lo(.Lpcrel_hi219)
	sd	a3, 80(sp)
	addi	a3, sp, 96
	sd	a3, 72(sp)
	li	a3, 11
	sd	a3, 64(sp)
.Lpcrel_hi220:
	auipc	a3, %pcrel_hi(.L__unnamed_112)
	addi	a3, a3, %pcrel_lo(.Lpcrel_hi220)
	sd	a3, 56(sp)
.Lpcrel_hi221:
	auipc	a3, %pcrel_hi(.L__unnamed_113)
	addi	a3, a3, %pcrel_lo(.Lpcrel_hi221)
	sd	a3, 48(sp)
	sd	a2, 40(sp)
	li	t0, 6
	sd	t0, 32(sp)
.Lpcrel_hi222:
	auipc	a2, %pcrel_hi(.L__unnamed_114)
	addi	a2, a2, %pcrel_lo(.Lpcrel_hi222)
	sd	a2, 24(sp)
	sd	a3, 16(sp)
	sd	a1, 8(sp)
.Lpcrel_hi223:
	auipc	a1, %pcrel_hi(.L__unnamed_115)
	addi	a1, a1, %pcrel_lo(.Lpcrel_hi223)
.Lpcrel_hi224:
	auipc	a2, %pcrel_hi(.L__unnamed_116)
	addi	a3, a2, %pcrel_lo(.Lpcrel_hi224)
.Lpcrel_hi225:
	auipc	a2, %pcrel_hi(.L__unnamed_117)
	addi	a6, a2, %pcrel_lo(.Lpcrel_hi225)
.Lpcrel_hi226:
	auipc	a2, %pcrel_hi(.L__unnamed_118)
	addi	a7, a2, %pcrel_lo(.Lpcrel_hi226)
	li	a2, 7
	li	a4, 4
	sd	t0, 0(sp)
	call	_ZN4core3fmt9Formatter26debug_struct_field4_finish17h201dd84ddbdba56fE@plt
	ld	ra, 104(sp)
	addi	sp, sp, 112
	ret
.Lfunc_end85:
	.size	_ZN42_$LT$$RF$T$u20$as$u20$core..fmt..Debug$GT$3fmt17h8202c45e085a4c39E, .Lfunc_end85-_ZN42_$LT$$RF$T$u20$as$u20$core..fmt..Debug$GT$3fmt17h8202c45e085a4c39E
	.cfi_endproc

	.section	".text._ZN42_$LT$$RF$T$u20$as$u20$core..fmt..Debug$GT$3fmt17h8a03ce746ee5493fE","ax",@progbits
	.p2align	1
	.type	_ZN42_$LT$$RF$T$u20$as$u20$core..fmt..Debug$GT$3fmt17h8a03ce746ee5493fE,@function
_ZN42_$LT$$RF$T$u20$as$u20$core..fmt..Debug$GT$3fmt17h8a03ce746ee5493fE:
	.cfi_startproc
	ld	a0, 0(a0)
	lbu	a0, 0(a0)
	slli	a0, a0, 3
.Lpcrel_hi227:
	auipc	a2, %pcrel_hi(.Lswitch.table._ZN78_$LT$tokio..time..interval..MissedTickBehavior$u20$as$u20$core..fmt..Debug$GT$3fmt17h6bedc886d34fe7a8E)
	addi	a2, a2, %pcrel_lo(.Lpcrel_hi227)
	add	a2, a2, a0
	ld	a2, 0(a2)
.Lpcrel_hi228:
	auipc	a3, %pcrel_hi(.Lswitch.table._ZN78_$LT$tokio..time..interval..MissedTickBehavior$u20$as$u20$core..fmt..Debug$GT$3fmt17h6bedc886d34fe7a8E.1210)
	addi	a3, a3, %pcrel_lo(.Lpcrel_hi228)
	add	a0, a0, a3
	ld	a3, 0(a0)
	mv	a0, a1
	mv	a1, a3
	tail	_ZN4core3fmt9Formatter9write_str17h6a12f92004fea676E@plt
.Lfunc_end86:
	.size	_ZN42_$LT$$RF$T$u20$as$u20$core..fmt..Debug$GT$3fmt17h8a03ce746ee5493fE, .Lfunc_end86-_ZN42_$LT$$RF$T$u20$as$u20$core..fmt..Debug$GT$3fmt17h8a03ce746ee5493fE
	.cfi_endproc

	.section	".text._ZN42_$LT$$RF$T$u20$as$u20$core..fmt..Debug$GT$3fmt17h8aad7359ddda7246E","ax",@progbits
	.p2align	1
	.type	_ZN42_$LT$$RF$T$u20$as$u20$core..fmt..Debug$GT$3fmt17h8aad7359ddda7246E,@function
_ZN42_$LT$$RF$T$u20$as$u20$core..fmt..Debug$GT$3fmt17h8aad7359ddda7246E:
	.cfi_startproc
	addi	sp, sp, -16
	.cfi_def_cfa_offset 16
	sd	ra, 8(sp)
	.cfi_offset ra, -8
	ld	a2, 0(a0)
	ld	a3, 0(a2)
	mv	a0, a1
	beqz	a3, .LBB87_2
	sd	a2, 0(sp)
.Lpcrel_hi230:
	auipc	a1, %pcrel_hi(.L__unnamed_65)
	addi	a1, a1, %pcrel_lo(.Lpcrel_hi230)
.Lpcrel_hi231:
	auipc	a2, %pcrel_hi(.L__unnamed_66)
	addi	a4, a2, %pcrel_lo(.Lpcrel_hi231)
	li	a2, 4
	mv	a3, sp
	call	_ZN4core3fmt9Formatter25debug_tuple_field1_finish17h2c8f4c389c486260E@plt
	ld	ra, 8(sp)
	addi	sp, sp, 16
	ret
.LBB87_2:
.Lpcrel_hi229:
	auipc	a1, %pcrel_hi(.L__unnamed_67)
	addi	a1, a1, %pcrel_lo(.Lpcrel_hi229)
	li	a2, 4
	ld	ra, 8(sp)
	addi	sp, sp, 16
	tail	_ZN4core3fmt9Formatter9write_str17h6a12f92004fea676E@plt
.Lfunc_end87:
	.size	_ZN42_$LT$$RF$T$u20$as$u20$core..fmt..Debug$GT$3fmt17h8aad7359ddda7246E, .Lfunc_end87-_ZN42_$LT$$RF$T$u20$as$u20$core..fmt..Debug$GT$3fmt17h8aad7359ddda7246E
	.cfi_endproc

	.section	".text._ZN42_$LT$$RF$T$u20$as$u20$core..fmt..Debug$GT$3fmt17h8ac9e4067253add8E","ax",@progbits
	.p2align	1
	.type	_ZN42_$LT$$RF$T$u20$as$u20$core..fmt..Debug$GT$3fmt17h8ac9e4067253add8E,@function
_ZN42_$LT$$RF$T$u20$as$u20$core..fmt..Debug$GT$3fmt17h8ac9e4067253add8E:
	.cfi_startproc
	addi	sp, sp, -32
	.cfi_def_cfa_offset 32
	sd	ra, 24(sp)
	sd	s0, 16(sp)
	sd	s1, 8(sp)
	.cfi_offset ra, -8
	.cfi_offset s0, -16
	.cfi_offset s1, -24
	ld	s1, 0(a0)
	mv	s0, a1
	mv	a0, a1
	call	_ZN4core3fmt9Formatter15debug_lower_hex17h997a8feb780e79d7E@plt
	beqz	a0, .LBB88_2
	mv	a0, s1
	mv	a1, s0
	ld	ra, 24(sp)
	ld	s0, 16(sp)
	ld	s1, 8(sp)
	addi	sp, sp, 32
	tail	_ZN4core3fmt3num55_$LT$impl$u20$core..fmt..LowerHex$u20$for$u20$usize$GT$3fmt17h34550843252ab4afE@plt
.LBB88_2:
	mv	a0, s0
	call	_ZN4core3fmt9Formatter15debug_upper_hex17he827cad4c6077043E@plt
	beqz	a0, .LBB88_4
	mv	a0, s1
	mv	a1, s0
	ld	ra, 24(sp)
	ld	s0, 16(sp)
	ld	s1, 8(sp)
	addi	sp, sp, 32
	tail	_ZN4core3fmt3num55_$LT$impl$u20$core..fmt..UpperHex$u20$for$u20$usize$GT$3fmt17h39ab38a5f43ff881E@plt
.LBB88_4:
	mv	a0, s1
	mv	a1, s0
	ld	ra, 24(sp)
	ld	s0, 16(sp)
	ld	s1, 8(sp)
	addi	sp, sp, 32
	tail	_ZN4core3fmt3num3imp54_$LT$impl$u20$core..fmt..Display$u20$for$u20$usize$GT$3fmt17h64b4ac61c4d09051E@plt
.Lfunc_end88:
	.size	_ZN42_$LT$$RF$T$u20$as$u20$core..fmt..Debug$GT$3fmt17h8ac9e4067253add8E, .Lfunc_end88-_ZN42_$LT$$RF$T$u20$as$u20$core..fmt..Debug$GT$3fmt17h8ac9e4067253add8E
	.cfi_endproc

	.section	".text._ZN42_$LT$$RF$T$u20$as$u20$core..fmt..Debug$GT$3fmt17h8b41e77e98b546adE","ax",@progbits
	.p2align	1
	.type	_ZN42_$LT$$RF$T$u20$as$u20$core..fmt..Debug$GT$3fmt17h8b41e77e98b546adE,@function
_ZN42_$LT$$RF$T$u20$as$u20$core..fmt..Debug$GT$3fmt17h8b41e77e98b546adE:
	.cfi_startproc
	addi	sp, sp, -16
	.cfi_def_cfa_offset 16
	sd	ra, 8(sp)
	.cfi_offset ra, -8
	ld	a0, 0(a0)
	ld	a2, 0(a0)
	mv	a0, a1
	addi	a2, a2, 16
	sd	a2, 0(sp)
.Lpcrel_hi232:
	auipc	a1, %pcrel_hi(.L__unnamed_119)
	addi	a1, a1, %pcrel_lo(.Lpcrel_hi232)
.Lpcrel_hi233:
	auipc	a2, %pcrel_hi(.L__unnamed_39)
	addi	a3, a2, %pcrel_lo(.Lpcrel_hi233)
.Lpcrel_hi234:
	auipc	a2, %pcrel_hi(.L__unnamed_99)
	addi	a6, a2, %pcrel_lo(.Lpcrel_hi234)
	li	a2, 6
	li	a4, 5
	mv	a5, sp
	call	_ZN4core3fmt9Formatter26debug_struct_field1_finish17h3c40263cb759e37bE@plt
	ld	ra, 8(sp)
	addi	sp, sp, 16
	ret
.Lfunc_end89:
	.size	_ZN42_$LT$$RF$T$u20$as$u20$core..fmt..Debug$GT$3fmt17h8b41e77e98b546adE, .Lfunc_end89-_ZN42_$LT$$RF$T$u20$as$u20$core..fmt..Debug$GT$3fmt17h8b41e77e98b546adE
	.cfi_endproc

	.section	".text._ZN42_$LT$$RF$T$u20$as$u20$core..fmt..Debug$GT$3fmt17h93e844639650512fE","ax",@progbits
	.p2align	1
	.type	_ZN42_$LT$$RF$T$u20$as$u20$core..fmt..Debug$GT$3fmt17h93e844639650512fE,@function
_ZN42_$LT$$RF$T$u20$as$u20$core..fmt..Debug$GT$3fmt17h93e844639650512fE:
	.cfi_startproc
	addi	sp, sp, -16
	.cfi_def_cfa_offset 16
	sd	ra, 8(sp)
	.cfi_offset ra, -8
	ld	a2, 0(a0)
	ld	a3, 0(a2)
	mv	a0, a1
	beqz	a3, .LBB90_2
	sd	a2, 0(sp)
.Lpcrel_hi236:
	auipc	a1, %pcrel_hi(.L__unnamed_65)
	addi	a1, a1, %pcrel_lo(.Lpcrel_hi236)
.Lpcrel_hi237:
	auipc	a2, %pcrel_hi(.L__unnamed_66)
	addi	a4, a2, %pcrel_lo(.Lpcrel_hi237)
	li	a2, 4
	mv	a3, sp
	call	_ZN4core3fmt9Formatter25debug_tuple_field1_finish17h2c8f4c389c486260E@plt
	ld	ra, 8(sp)
	addi	sp, sp, 16
	ret
.LBB90_2:
.Lpcrel_hi235:
	auipc	a1, %pcrel_hi(.L__unnamed_67)
	addi	a1, a1, %pcrel_lo(.Lpcrel_hi235)
	li	a2, 4
	ld	ra, 8(sp)
	addi	sp, sp, 16
	tail	_ZN4core3fmt9Formatter9write_str17h6a12f92004fea676E@plt
.Lfunc_end90:
	.size	_ZN42_$LT$$RF$T$u20$as$u20$core..fmt..Debug$GT$3fmt17h93e844639650512fE, .Lfunc_end90-_ZN42_$LT$$RF$T$u20$as$u20$core..fmt..Debug$GT$3fmt17h93e844639650512fE
	.cfi_endproc

	.section	".text._ZN42_$LT$$RF$T$u20$as$u20$core..fmt..Debug$GT$3fmt17h95e1eaa98e78fab8E","ax",@progbits
	.p2align	1
	.type	_ZN42_$LT$$RF$T$u20$as$u20$core..fmt..Debug$GT$3fmt17h95e1eaa98e78fab8E,@function
_ZN42_$LT$$RF$T$u20$as$u20$core..fmt..Debug$GT$3fmt17h95e1eaa98e78fab8E:
	.cfi_startproc
	ld	a0, 0(a0)
	tail	_ZN54_$LT$std..io..SeekFrom$u20$as$u20$core..fmt..Debug$GT$3fmt17h26f433e30f8fcab1E@plt
.Lfunc_end91:
	.size	_ZN42_$LT$$RF$T$u20$as$u20$core..fmt..Debug$GT$3fmt17h95e1eaa98e78fab8E, .Lfunc_end91-_ZN42_$LT$$RF$T$u20$as$u20$core..fmt..Debug$GT$3fmt17h95e1eaa98e78fab8E
	.cfi_endproc

	.section	".text._ZN42_$LT$$RF$T$u20$as$u20$core..fmt..Debug$GT$3fmt17h960429624e0dff1eE","ax",@progbits
	.p2align	1
	.type	_ZN42_$LT$$RF$T$u20$as$u20$core..fmt..Debug$GT$3fmt17h960429624e0dff1eE,@function
_ZN42_$LT$$RF$T$u20$as$u20$core..fmt..Debug$GT$3fmt17h960429624e0dff1eE:
	.cfi_startproc
	addi	sp, sp, -64
	.cfi_def_cfa_offset 64
	sd	ra, 56(sp)
	sd	s0, 48(sp)
	sd	s1, 40(sp)
	.cfi_offset ra, -8
	.cfi_offset s0, -16
	.cfi_offset s1, -24
	ld	s1, 0(a0)
.Lpcrel_hi238:
	auipc	a0, %pcrel_hi(.L__unnamed_120)
	addi	a2, a0, %pcrel_lo(.Lpcrel_hi238)
	addi	a0, sp, 8
	li	a3, 17
	call	_ZN4core3fmt9Formatter12debug_struct17hc0fa802c913860d0E@plt
	ld	a0, 24(s1)
	sd	a0, 24(sp)
.Lpcrel_hi239:
	auipc	a0, %pcrel_hi(.L__unnamed_121)
	addi	a1, a0, %pcrel_lo(.Lpcrel_hi239)
.Lpcrel_hi240:
	auipc	a0, %pcrel_hi(.L__unnamed_58)
	addi	s0, a0, %pcrel_lo(.Lpcrel_hi240)
	addi	a0, sp, 8
	li	a2, 4
	addi	a3, sp, 24
	mv	a4, s0
	call	_ZN4core3fmt8builders11DebugStruct5field17h6f896db0b51e77caE@plt
	ld	a1, 16(s1)
	sd	a1, 32(sp)
.Lpcrel_hi241:
	auipc	a1, %pcrel_hi(.L__unnamed_122)
	addi	a1, a1, %pcrel_lo(.Lpcrel_hi241)
	li	a2, 11
	addi	a3, sp, 32
	mv	a4, s0
	call	_ZN4core3fmt8builders11DebugStruct5field17h6f896db0b51e77caE@plt
	call	_ZN4core3fmt8builders11DebugStruct6finish17h6d43ebeff4cf57a9E@plt
	ld	ra, 56(sp)
	ld	s0, 48(sp)
	ld	s1, 40(sp)
	addi	sp, sp, 64
	ret
.Lfunc_end92:
	.size	_ZN42_$LT$$RF$T$u20$as$u20$core..fmt..Debug$GT$3fmt17h960429624e0dff1eE, .Lfunc_end92-_ZN42_$LT$$RF$T$u20$as$u20$core..fmt..Debug$GT$3fmt17h960429624e0dff1eE
	.cfi_endproc

	.section	".text._ZN42_$LT$$RF$T$u20$as$u20$core..fmt..Debug$GT$3fmt17h97e71b5adbbc1b31E","ax",@progbits
	.p2align	1
	.type	_ZN42_$LT$$RF$T$u20$as$u20$core..fmt..Debug$GT$3fmt17h97e71b5adbbc1b31E,@function
_ZN42_$LT$$RF$T$u20$as$u20$core..fmt..Debug$GT$3fmt17h97e71b5adbbc1b31E:
	.cfi_startproc
	addi	sp, sp, -32
	.cfi_def_cfa_offset 32
	sd	ra, 24(sp)
	sd	s0, 16(sp)
	sd	s1, 8(sp)
	.cfi_offset ra, -8
	.cfi_offset s0, -16
	.cfi_offset s1, -24
	ld	s1, 0(a0)
	mv	s0, a1
	mv	a0, a1
	call	_ZN4core3fmt9Formatter15debug_lower_hex17h997a8feb780e79d7E@plt
	beqz	a0, .LBB93_2
	mv	a0, s1
	mv	a1, s0
	ld	ra, 24(sp)
	ld	s0, 16(sp)
	ld	s1, 8(sp)
	addi	sp, sp, 32
	tail	_ZN4core3fmt3num52_$LT$impl$u20$core..fmt..LowerHex$u20$for$u20$u8$GT$3fmt17h7611a13e21553363E@plt
.LBB93_2:
	mv	a0, s0
	call	_ZN4core3fmt9Formatter15debug_upper_hex17he827cad4c6077043E@plt
	beqz	a0, .LBB93_4
	mv	a0, s1
	mv	a1, s0
	ld	ra, 24(sp)
	ld	s0, 16(sp)
	ld	s1, 8(sp)
	addi	sp, sp, 32
	tail	_ZN4core3fmt3num52_$LT$impl$u20$core..fmt..UpperHex$u20$for$u20$u8$GT$3fmt17hb20e693df8f53501E@plt
.LBB93_4:
	mv	a0, s1
	mv	a1, s0
	ld	ra, 24(sp)
	ld	s0, 16(sp)
	ld	s1, 8(sp)
	addi	sp, sp, 32
	tail	_ZN4core3fmt3num3imp51_$LT$impl$u20$core..fmt..Display$u20$for$u20$u8$GT$3fmt17hec95463cd04369b3E@plt
.Lfunc_end93:
	.size	_ZN42_$LT$$RF$T$u20$as$u20$core..fmt..Debug$GT$3fmt17h97e71b5adbbc1b31E, .Lfunc_end93-_ZN42_$LT$$RF$T$u20$as$u20$core..fmt..Debug$GT$3fmt17h97e71b5adbbc1b31E
	.cfi_endproc

	.section	".text._ZN42_$LT$$RF$T$u20$as$u20$core..fmt..Debug$GT$3fmt17h9b30277f6459adf3E","ax",@progbits
	.p2align	1
	.type	_ZN42_$LT$$RF$T$u20$as$u20$core..fmt..Debug$GT$3fmt17h9b30277f6459adf3E,@function
_ZN42_$LT$$RF$T$u20$as$u20$core..fmt..Debug$GT$3fmt17h9b30277f6459adf3E:
	.cfi_startproc
	addi	sp, sp, -16
	.cfi_def_cfa_offset 16
	sd	ra, 8(sp)
	.cfi_offset ra, -8
	ld	a2, 0(a0)
	ld	a3, 8(a2)
	mv	a0, a1
	beqz	a3, .LBB94_2
	sd	a2, 0(sp)
.Lpcrel_hi243:
	auipc	a1, %pcrel_hi(.L__unnamed_65)
	addi	a1, a1, %pcrel_lo(.Lpcrel_hi243)
.Lpcrel_hi244:
	auipc	a2, %pcrel_hi(.L__unnamed_123)
	addi	a4, a2, %pcrel_lo(.Lpcrel_hi244)
	li	a2, 4
	mv	a3, sp
	call	_ZN4core3fmt9Formatter25debug_tuple_field1_finish17h2c8f4c389c486260E@plt
	ld	ra, 8(sp)
	addi	sp, sp, 16
	ret
.LBB94_2:
.Lpcrel_hi242:
	auipc	a1, %pcrel_hi(.L__unnamed_67)
	addi	a1, a1, %pcrel_lo(.Lpcrel_hi242)
	li	a2, 4
	ld	ra, 8(sp)
	addi	sp, sp, 16
	tail	_ZN4core3fmt9Formatter9write_str17h6a12f92004fea676E@plt
.Lfunc_end94:
	.size	_ZN42_$LT$$RF$T$u20$as$u20$core..fmt..Debug$GT$3fmt17h9b30277f6459adf3E, .Lfunc_end94-_ZN42_$LT$$RF$T$u20$as$u20$core..fmt..Debug$GT$3fmt17h9b30277f6459adf3E
	.cfi_endproc

	.section	".text._ZN42_$LT$$RF$T$u20$as$u20$core..fmt..Debug$GT$3fmt17h9bb9a57f5055a350E","ax",@progbits
	.p2align	1
	.type	_ZN42_$LT$$RF$T$u20$as$u20$core..fmt..Debug$GT$3fmt17h9bb9a57f5055a350E,@function
_ZN42_$LT$$RF$T$u20$as$u20$core..fmt..Debug$GT$3fmt17h9bb9a57f5055a350E:
	.cfi_startproc
	ld	a0, 0(a0)
	tail	_ZN69_$LT$mio..net..tcp..stream..TcpStream$u20$as$u20$core..fmt..Debug$GT$3fmt17h0c34a438da4b1d7fE@plt
.Lfunc_end95:
	.size	_ZN42_$LT$$RF$T$u20$as$u20$core..fmt..Debug$GT$3fmt17h9bb9a57f5055a350E, .Lfunc_end95-_ZN42_$LT$$RF$T$u20$as$u20$core..fmt..Debug$GT$3fmt17h9bb9a57f5055a350E
	.cfi_endproc

	.section	".text._ZN42_$LT$$RF$T$u20$as$u20$core..fmt..Debug$GT$3fmt17h9cff6dc0474cd0d4E","ax",@progbits
	.p2align	1
	.type	_ZN42_$LT$$RF$T$u20$as$u20$core..fmt..Debug$GT$3fmt17h9cff6dc0474cd0d4E,@function
_ZN42_$LT$$RF$T$u20$as$u20$core..fmt..Debug$GT$3fmt17h9cff6dc0474cd0d4E:
	.cfi_startproc
	ld	a0, 0(a0)
	lb	a0, 0(a0)
	addiw	a0, a0, -1
	slli	a0, a0, 56
	srai	a0, a0, 56
	slli	a0, a0, 3
.Lpcrel_hi245:
	auipc	a2, %pcrel_hi(.Lswitch.table._ZN61_$LT$tokio..time..error..Kind$u20$as$u20$core..fmt..Debug$GT$3fmt17h6251cfb112de7ceeE)
	addi	a2, a2, %pcrel_lo(.Lpcrel_hi245)
	add	a2, a2, a0
	ld	a2, 0(a2)
.Lpcrel_hi246:
	auipc	a3, %pcrel_hi(.Lswitch.table._ZN61_$LT$tokio..time..error..Kind$u20$as$u20$core..fmt..Debug$GT$3fmt17h6251cfb112de7ceeE.1209)
	addi	a3, a3, %pcrel_lo(.Lpcrel_hi246)
	add	a0, a0, a3
	ld	a3, 0(a0)
	mv	a0, a1
	mv	a1, a3
	tail	_ZN4core3fmt9Formatter9write_str17h6a12f92004fea676E@plt
.Lfunc_end96:
	.size	_ZN42_$LT$$RF$T$u20$as$u20$core..fmt..Debug$GT$3fmt17h9cff6dc0474cd0d4E, .Lfunc_end96-_ZN42_$LT$$RF$T$u20$as$u20$core..fmt..Debug$GT$3fmt17h9cff6dc0474cd0d4E
	.cfi_endproc

	.section	".text._ZN42_$LT$$RF$T$u20$as$u20$core..fmt..Debug$GT$3fmt17ha1d180c8d1df22c8E","ax",@progbits
	.p2align	1
	.type	_ZN42_$LT$$RF$T$u20$as$u20$core..fmt..Debug$GT$3fmt17ha1d180c8d1df22c8E,@function
_ZN42_$LT$$RF$T$u20$as$u20$core..fmt..Debug$GT$3fmt17ha1d180c8d1df22c8E:
	.cfi_startproc
	addi	sp, sp, -16
	.cfi_def_cfa_offset 16
	sd	ra, 8(sp)
	.cfi_offset ra, -8
	ld	a2, 0(a0)
	mv	a0, a1
	sd	a2, 0(sp)
.Lpcrel_hi247:
	auipc	a1, %pcrel_hi(.L__unnamed_124)
	addi	a1, a1, %pcrel_lo(.Lpcrel_hi247)
.Lpcrel_hi248:
	auipc	a2, %pcrel_hi(.L__unnamed_125)
	addi	a3, a2, %pcrel_lo(.Lpcrel_hi248)
.Lpcrel_hi249:
	auipc	a2, %pcrel_hi(.L__unnamed_78)
	addi	a6, a2, %pcrel_lo(.Lpcrel_hi249)
	li	a2, 4
	li	a4, 3
	mv	a5, sp
	call	_ZN4core3fmt9Formatter26debug_struct_field1_finish17h3c40263cb759e37bE@plt
	ld	ra, 8(sp)
	addi	sp, sp, 16
	ret
.Lfunc_end97:
	.size	_ZN42_$LT$$RF$T$u20$as$u20$core..fmt..Debug$GT$3fmt17ha1d180c8d1df22c8E, .Lfunc_end97-_ZN42_$LT$$RF$T$u20$as$u20$core..fmt..Debug$GT$3fmt17ha1d180c8d1df22c8E
	.cfi_endproc

	.section	".text._ZN42_$LT$$RF$T$u20$as$u20$core..fmt..Debug$GT$3fmt17ha20cbe60df13b489E","ax",@progbits
	.p2align	1
	.type	_ZN42_$LT$$RF$T$u20$as$u20$core..fmt..Debug$GT$3fmt17ha20cbe60df13b489E,@function
_ZN42_$LT$$RF$T$u20$as$u20$core..fmt..Debug$GT$3fmt17ha20cbe60df13b489E:
	.cfi_startproc
	addi	sp, sp, -48
	.cfi_def_cfa_offset 48
	sd	ra, 40(sp)
	sd	s0, 32(sp)
	sd	s1, 24(sp)
	.cfi_offset ra, -8
	.cfi_offset s0, -16
	.cfi_offset s1, -24
	ld	s0, 0(a0)
.Lpcrel_hi250:
	auipc	a0, %pcrel_hi(.L__unnamed_126)
	addi	a2, a0, %pcrel_lo(.Lpcrel_hi250)
	addi	a0, sp, 8
	li	a3, 10
	call	_ZN4core3fmt9Formatter12debug_struct17hc0fa802c913860d0E@plt
.Lpcrel_hi251:
	auipc	a0, %pcrel_hi(.L__unnamed_127)
	addi	a1, a0, %pcrel_lo(.Lpcrel_hi251)
.Lpcrel_hi252:
	auipc	a0, %pcrel_hi(.L__unnamed_128)
	addi	s1, a0, %pcrel_lo(.Lpcrel_hi252)
	addi	a0, sp, 8
	li	a2, 4
	mv	a3, s0
	mv	a4, s1
	call	_ZN4core3fmt8builders11DebugStruct5field17h6f896db0b51e77caE@plt
	addi	a3, s0, 8
.Lpcrel_hi253:
	auipc	a1, %pcrel_hi(.L__unnamed_129)
	addi	a1, a1, %pcrel_lo(.Lpcrel_hi253)
	li	a2, 4
	mv	a4, s1
	call	_ZN4core3fmt8builders11DebugStruct5field17h6f896db0b51e77caE@plt
	call	_ZN4core3fmt8builders11DebugStruct6finish17h6d43ebeff4cf57a9E@plt
	ld	ra, 40(sp)
	ld	s0, 32(sp)
	ld	s1, 24(sp)
	addi	sp, sp, 48
	ret
.Lfunc_end98:
	.size	_ZN42_$LT$$RF$T$u20$as$u20$core..fmt..Debug$GT$3fmt17ha20cbe60df13b489E, .Lfunc_end98-_ZN42_$LT$$RF$T$u20$as$u20$core..fmt..Debug$GT$3fmt17ha20cbe60df13b489E
	.cfi_endproc

	.section	".text._ZN42_$LT$$RF$T$u20$as$u20$core..fmt..Debug$GT$3fmt17ha7e16bc790669480E","ax",@progbits
	.p2align	1
	.type	_ZN42_$LT$$RF$T$u20$as$u20$core..fmt..Debug$GT$3fmt17ha7e16bc790669480E,@function
_ZN42_$LT$$RF$T$u20$as$u20$core..fmt..Debug$GT$3fmt17ha7e16bc790669480E:
.Lfunc_begin22:
	.cfi_startproc
	.cfi_personality 155, DW.ref.rust_eh_personality
	.cfi_lsda 27, .Lexception22
	addi	sp, sp, -64
	.cfi_def_cfa_offset 64
	sd	ra, 56(sp)
	sd	s0, 48(sp)
	sd	s1, 40(sp)
	sd	s2, 32(sp)
	sd	s3, 24(sp)
	.cfi_offset ra, -8
	.cfi_offset s0, -16
	.cfi_offset s1, -24
	.cfi_offset s2, -32
	.cfi_offset s3, -40
	ld	s0, 0(a0)
.Lpcrel_hi254:
	auipc	a0, %pcrel_hi(.L__unnamed_59)
	addi	a2, a0, %pcrel_lo(.Lpcrel_hi254)
	mv	a0, sp
	li	a3, 5
	call	_ZN4core3fmt9Formatter12debug_struct17hc0fa802c913860d0E@plt
	li	a0, 1
.LBB99_18:
	lr.w.aq	a1, (s0)
	bnez	a1, .LBB99_4
	sc.w	a2, a0, (s0)
	bnez	a2, .LBB99_18
.Lpcrel_hi255:
	auipc	a0, %got_pcrel_hi(_ZN3std9panicking11panic_count18GLOBAL_PANIC_COUNT17h813e628f0cb26d91E)
	ld	s1, %pcrel_lo(.Lpcrel_hi255)(a0)
	ld	a0, 0(s1)
	slli	a0, a0, 1
	li	s2, -1
	bnez	a0, .LBB99_5
	li	s3, 0
	lb	a1, 4(s0)
	srli	s2, s2, 1
	addi	a0, s0, 8
	beqz	a1, .LBB99_6
.LBB99_3:
	sd	a0, 16(sp)
.Ltmp274:
.Lpcrel_hi259:
	auipc	a0, %pcrel_hi(.L__unnamed_60)
	addi	a1, a0, %pcrel_lo(.Lpcrel_hi259)
.Lpcrel_hi260:
	auipc	a0, %pcrel_hi(.L__unnamed_130)
	addi	a4, a0, %pcrel_lo(.Lpcrel_hi260)
	mv	a0, sp
	li	a2, 4
	addi	a3, sp, 16
	call	_ZN4core3fmt8builders11DebugStruct5field17h6f896db0b51e77caE@plt
.Ltmp275:
	j	.LBB99_7
.LBB99_4:
.Lpcrel_hi256:
	auipc	a0, %pcrel_hi(.L__unnamed_60)
	addi	a1, a0, %pcrel_lo(.Lpcrel_hi256)
.Lpcrel_hi257:
	auipc	a0, %pcrel_hi(.L__unnamed_15)
	addi	a3, a0, %pcrel_lo(.Lpcrel_hi257)
.Lpcrel_hi258:
	auipc	a0, %pcrel_hi(.L__unnamed_62)
	addi	a4, a0, %pcrel_lo(.Lpcrel_hi258)
	mv	a0, sp
	li	a2, 4
	call	_ZN4core3fmt8builders11DebugStruct5field17h6f896db0b51e77caE@plt
	j	.LBB99_10
.LBB99_5:
	call	_ZN3std9panicking11panic_count17is_zero_slow_path17he417053412855f77E@plt
	xori	s3, a0, 1
	lb	a1, 4(s0)
	srli	s2, s2, 1
	addi	a0, s0, 8
	bnez	a1, .LBB99_3
.LBB99_6:
	sd	a0, 16(sp)
.Ltmp279:
.Lpcrel_hi261:
	auipc	a0, %pcrel_hi(.L__unnamed_60)
	addi	a1, a0, %pcrel_lo(.Lpcrel_hi261)
.Lpcrel_hi262:
	auipc	a0, %pcrel_hi(.L__unnamed_130)
	addi	a4, a0, %pcrel_lo(.Lpcrel_hi262)
	mv	a0, sp
	li	a2, 4
	addi	a3, sp, 16
	call	_ZN4core3fmt8builders11DebugStruct5field17h6f896db0b51e77caE@plt
.Ltmp280:
.LBB99_7:
	bnez	s3, .LBB99_9
	ld	a0, 0(s1)
	and	a0, a0, s2
	bnez	a0, .LBB99_12
.LBB99_9:
	amoswap.w.rl	a0, zero, (s0)
	li	a1, 2
	beq	a0, a1, .LBB99_11
.LBB99_10:
	lb	a0, 4(s0)
	snez	a0, a0
	sb	a0, 16(sp)
.Lpcrel_hi263:
	auipc	a0, %pcrel_hi(.L__unnamed_63)
	addi	a1, a0, %pcrel_lo(.Lpcrel_hi263)
.Lpcrel_hi264:
	auipc	a0, %pcrel_hi(.L__unnamed_33)
	addi	a4, a0, %pcrel_lo(.Lpcrel_hi264)
	mv	a0, sp
	li	a2, 8
	addi	a3, sp, 16
	call	_ZN4core3fmt8builders11DebugStruct5field17h6f896db0b51e77caE@plt
	mv	a0, sp
	call	_ZN4core3fmt8builders11DebugStruct21finish_non_exhaustive17h83b2a07b490175b3E@plt
	ld	ra, 56(sp)
	ld	s0, 48(sp)
	ld	s1, 40(sp)
	ld	s2, 32(sp)
	ld	s3, 24(sp)
	addi	sp, sp, 64
	ret
.LBB99_11:
	mv	a0, s0
	call	_ZN3std3sys4unix5locks11futex_mutex5Mutex4wake17h5ccb808587248eb1E@plt
	j	.LBB99_10
.LBB99_12:
	call	_ZN3std9panicking11panic_count17is_zero_slow_path17he417053412855f77E@plt
	bnez	a0, .LBB99_9
	li	a0, 1
	sb	a0, 4(s0)
	j	.LBB99_9
.LBB99_14:
.Ltmp281:
	mv	s2, a0
.Ltmp282:
	mv	a0, s0
	mv	a1, s3
	call	_ZN4core3ptr121drop_in_place$LT$std..sync..poison..PoisonError$LT$std..sync..mutex..MutexGuard$LT$tokio..io..util..mem..Pipe$GT$$GT$$GT$17haeaff8cb67a08524E
.Ltmp283:
	j	.LBB99_16
.LBB99_15:
.Ltmp276:
	mv	s2, a0
.Ltmp277:
	mv	a0, s0
	mv	a1, s3
	call	_ZN4core3ptr121drop_in_place$LT$std..sync..poison..PoisonError$LT$std..sync..mutex..MutexGuard$LT$tokio..io..util..mem..Pipe$GT$$GT$$GT$17haeaff8cb67a08524E
.Ltmp278:
.LBB99_16:
	mv	a0, s2
	call	_Unwind_Resume@plt
	unimp	
.LBB99_17:
.Ltmp284:
	call	_ZN4core9panicking19panic_cannot_unwind17h7b6652c0f2f24b81E@plt
	unimp	
.Lfunc_end99:
	.size	_ZN42_$LT$$RF$T$u20$as$u20$core..fmt..Debug$GT$3fmt17ha7e16bc790669480E, .Lfunc_end99-_ZN42_$LT$$RF$T$u20$as$u20$core..fmt..Debug$GT$3fmt17ha7e16bc790669480E
	.cfi_endproc
	.section	".gcc_except_table._ZN42_$LT$$RF$T$u20$as$u20$core..fmt..Debug$GT$3fmt17ha7e16bc790669480E","a",@progbits
	.p2align	2, 0x0
GCC_except_table99:
.Lexception22:
	.byte	255
	.byte	255
	.byte	3
	.uleb128 .Lcst_end22-.Lcst_begin22
.Lcst_begin22:
	.word	.Lfunc_begin22-.Lfunc_begin22
	.word	.Ltmp274-.Lfunc_begin22
	.word	0
	.byte	0
	.word	.Ltmp274-.Lfunc_begin22
	.word	.Ltmp275-.Ltmp274
	.word	.Ltmp276-.Lfunc_begin22
	.byte	0
	.word	.Ltmp275-.Lfunc_begin22
	.word	.Ltmp279-.Ltmp275
	.word	0
	.byte	0
	.word	.Ltmp279-.Lfunc_begin22
	.word	.Ltmp280-.Ltmp279
	.word	.Ltmp281-.Lfunc_begin22
	.byte	0
	.word	.Ltmp280-.Lfunc_begin22
	.word	.Ltmp282-.Ltmp280
	.word	0
	.byte	0
	.word	.Ltmp282-.Lfunc_begin22
	.word	.Ltmp278-.Ltmp282
	.word	.Ltmp284-.Lfunc_begin22
	.byte	0
	.word	.Ltmp278-.Lfunc_begin22
	.word	.Lfunc_end99-.Ltmp278
	.word	0
	.byte	0
.Lcst_end22:
	.p2align	2, 0x0

	.section	".text._ZN42_$LT$$RF$T$u20$as$u20$core..fmt..Debug$GT$3fmt17haa5039b4470cfa43E","ax",@progbits
	.p2align	1
	.type	_ZN42_$LT$$RF$T$u20$as$u20$core..fmt..Debug$GT$3fmt17haa5039b4470cfa43E,@function
_ZN42_$LT$$RF$T$u20$as$u20$core..fmt..Debug$GT$3fmt17haa5039b4470cfa43E:
	.cfi_startproc
	ld	a0, 0(a0)
	lbu	a2, 0(a0)
	mv	a0, a1
	beqz	a2, .LBB100_2
.Lpcrel_hi266:
	auipc	a1, %pcrel_hi(.L__unnamed_131)
	addi	a1, a1, %pcrel_lo(.Lpcrel_hi266)
	li	a2, 20
	tail	_ZN4core3fmt9Formatter9write_str17h6a12f92004fea676E@plt
.LBB100_2:
.Lpcrel_hi265:
	auipc	a1, %pcrel_hi(.L__unnamed_132)
	addi	a1, a1, %pcrel_lo(.Lpcrel_hi265)
	li	a2, 9
	tail	_ZN4core3fmt9Formatter9write_str17h6a12f92004fea676E@plt
.Lfunc_end100:
	.size	_ZN42_$LT$$RF$T$u20$as$u20$core..fmt..Debug$GT$3fmt17haa5039b4470cfa43E, .Lfunc_end100-_ZN42_$LT$$RF$T$u20$as$u20$core..fmt..Debug$GT$3fmt17haa5039b4470cfa43E
	.cfi_endproc

	.section	".text._ZN42_$LT$$RF$T$u20$as$u20$core..fmt..Debug$GT$3fmt17habccc5691ab13b3eE","ax",@progbits
	.p2align	1
	.type	_ZN42_$LT$$RF$T$u20$as$u20$core..fmt..Debug$GT$3fmt17habccc5691ab13b3eE,@function
_ZN42_$LT$$RF$T$u20$as$u20$core..fmt..Debug$GT$3fmt17habccc5691ab13b3eE:
	.cfi_startproc
	addi	sp, sp, -32
	.cfi_def_cfa_offset 32
	sd	ra, 24(sp)
	sd	s0, 16(sp)
	.cfi_offset ra, -8
	.cfi_offset s0, -16
	ld	s0, 0(a0)
.Lpcrel_hi267:
	auipc	a0, %pcrel_hi(.L__unnamed_133)
	addi	a2, a0, %pcrel_lo(.Lpcrel_hi267)
	mv	a0, sp
	li	a3, 10
	call	_ZN4core3fmt9Formatter12debug_struct17hc0fa802c913860d0E@plt
	addi	a3, s0, 8
.Lpcrel_hi268:
	auipc	a0, %pcrel_hi(.L__unnamed_134)
	addi	a1, a0, %pcrel_lo(.Lpcrel_hi268)
.Lpcrel_hi269:
	auipc	a0, %pcrel_hi(.L__unnamed_135)
	addi	a4, a0, %pcrel_lo(.Lpcrel_hi269)
	mv	a0, sp
	li	a2, 2
	call	_ZN4core3fmt8builders11DebugStruct5field17h6f896db0b51e77caE@plt
	call	_ZN4core3fmt8builders11DebugStruct6finish17h6d43ebeff4cf57a9E@plt
	ld	ra, 24(sp)
	ld	s0, 16(sp)
	addi	sp, sp, 32
	ret
.Lfunc_end101:
	.size	_ZN42_$LT$$RF$T$u20$as$u20$core..fmt..Debug$GT$3fmt17habccc5691ab13b3eE, .Lfunc_end101-_ZN42_$LT$$RF$T$u20$as$u20$core..fmt..Debug$GT$3fmt17habccc5691ab13b3eE
	.cfi_endproc

	.section	".text._ZN42_$LT$$RF$T$u20$as$u20$core..fmt..Debug$GT$3fmt17habd48b3ec6f28f03E","ax",@progbits
	.p2align	1
	.type	_ZN42_$LT$$RF$T$u20$as$u20$core..fmt..Debug$GT$3fmt17habd48b3ec6f28f03E,@function
_ZN42_$LT$$RF$T$u20$as$u20$core..fmt..Debug$GT$3fmt17habd48b3ec6f28f03E:
	.cfi_startproc
	addi	sp, sp, -32
	.cfi_def_cfa_offset 32
	sd	ra, 24(sp)
	.cfi_offset ra, -8
.Lpcrel_hi270:
	auipc	a0, %pcrel_hi(.L__unnamed_136)
	addi	a2, a0, %pcrel_lo(.Lpcrel_hi270)
	addi	a0, sp, 8
	li	a3, 12
	call	_ZN4core3fmt9Formatter12debug_struct17hc0fa802c913860d0E@plt
	addi	a0, sp, 8
	call	_ZN4core3fmt8builders11DebugStruct6finish17h6d43ebeff4cf57a9E@plt
	ld	ra, 24(sp)
	addi	sp, sp, 32
	ret
.Lfunc_end102:
	.size	_ZN42_$LT$$RF$T$u20$as$u20$core..fmt..Debug$GT$3fmt17habd48b3ec6f28f03E, .Lfunc_end102-_ZN42_$LT$$RF$T$u20$as$u20$core..fmt..Debug$GT$3fmt17habd48b3ec6f28f03E
	.cfi_endproc

	.section	".text._ZN42_$LT$$RF$T$u20$as$u20$core..fmt..Debug$GT$3fmt17habd752b483ae4284E","ax",@progbits
	.p2align	1
	.type	_ZN42_$LT$$RF$T$u20$as$u20$core..fmt..Debug$GT$3fmt17habd752b483ae4284E,@function
_ZN42_$LT$$RF$T$u20$as$u20$core..fmt..Debug$GT$3fmt17habd752b483ae4284E:
	.cfi_startproc
	ld	a0, 0(a0)
	tail	_ZN73_$LT$mio..net..tcp..listener..TcpListener$u20$as$u20$core..fmt..Debug$GT$3fmt17h5cc4335e053f6229E@plt
.Lfunc_end103:
	.size	_ZN42_$LT$$RF$T$u20$as$u20$core..fmt..Debug$GT$3fmt17habd752b483ae4284E, .Lfunc_end103-_ZN42_$LT$$RF$T$u20$as$u20$core..fmt..Debug$GT$3fmt17habd752b483ae4284E
	.cfi_endproc

	.section	".text._ZN42_$LT$$RF$T$u20$as$u20$core..fmt..Debug$GT$3fmt17had46185594cf6e00E","ax",@progbits
	.p2align	1
	.type	_ZN42_$LT$$RF$T$u20$as$u20$core..fmt..Debug$GT$3fmt17had46185594cf6e00E,@function
_ZN42_$LT$$RF$T$u20$as$u20$core..fmt..Debug$GT$3fmt17had46185594cf6e00E:
	.cfi_startproc
	addi	sp, sp, -48
	.cfi_def_cfa_offset 48
	sd	ra, 40(sp)
	sd	s0, 32(sp)
	sd	s1, 24(sp)
	.cfi_offset ra, -8
	.cfi_offset s0, -16
	.cfi_offset s1, -24
	ld	s0, 0(a0)
.Lpcrel_hi271:
	auipc	a0, %pcrel_hi(.L__unnamed_126)
	addi	a2, a0, %pcrel_lo(.Lpcrel_hi271)
	addi	a0, sp, 8
	li	a3, 10
	call	_ZN4core3fmt9Formatter12debug_struct17hc0fa802c913860d0E@plt
.Lpcrel_hi272:
	auipc	a0, %pcrel_hi(.L__unnamed_127)
	addi	a1, a0, %pcrel_lo(.Lpcrel_hi272)
.Lpcrel_hi273:
	auipc	a0, %pcrel_hi(.L__unnamed_137)
	addi	s1, a0, %pcrel_lo(.Lpcrel_hi273)
	addi	a0, sp, 8
	li	a2, 4
	mv	a3, s0
	mv	a4, s1
	call	_ZN4core3fmt8builders11DebugStruct5field17h6f896db0b51e77caE@plt
	addi	a3, s0, 8
.Lpcrel_hi274:
	auipc	a1, %pcrel_hi(.L__unnamed_129)
	addi	a1, a1, %pcrel_lo(.Lpcrel_hi274)
	li	a2, 4
	mv	a4, s1
	call	_ZN4core3fmt8builders11DebugStruct5field17h6f896db0b51e77caE@plt
	call	_ZN4core3fmt8builders11DebugStruct6finish17h6d43ebeff4cf57a9E@plt
	ld	ra, 40(sp)
	ld	s0, 32(sp)
	ld	s1, 24(sp)
	addi	sp, sp, 48
	ret
.Lfunc_end104:
	.size	_ZN42_$LT$$RF$T$u20$as$u20$core..fmt..Debug$GT$3fmt17had46185594cf6e00E, .Lfunc_end104-_ZN42_$LT$$RF$T$u20$as$u20$core..fmt..Debug$GT$3fmt17had46185594cf6e00E
	.cfi_endproc

	.section	".text._ZN42_$LT$$RF$T$u20$as$u20$core..fmt..Debug$GT$3fmt17hadb1a9d76fd05cc6E","ax",@progbits
	.p2align	1
	.type	_ZN42_$LT$$RF$T$u20$as$u20$core..fmt..Debug$GT$3fmt17hadb1a9d76fd05cc6E,@function
_ZN42_$LT$$RF$T$u20$as$u20$core..fmt..Debug$GT$3fmt17hadb1a9d76fd05cc6E:
	.cfi_startproc
	addi	sp, sp, -32
	.cfi_def_cfa_offset 32
	sd	ra, 24(sp)
	sd	s0, 16(sp)
	sd	s1, 8(sp)
	.cfi_offset ra, -8
	.cfi_offset s0, -16
	.cfi_offset s1, -24
	ld	s1, 0(a0)
	mv	s0, a1
	mv	a0, a1
	call	_ZN4core3fmt9Formatter15debug_lower_hex17h997a8feb780e79d7E@plt
	beqz	a0, .LBB105_2
	mv	a0, s1
	mv	a1, s0
	ld	ra, 24(sp)
	ld	s0, 16(sp)
	ld	s1, 8(sp)
	addi	sp, sp, 32
	tail	_ZN4core3fmt3num53_$LT$impl$u20$core..fmt..LowerHex$u20$for$u20$i64$GT$3fmt17h96c9b921a4faa1d3E@plt
.LBB105_2:
	mv	a0, s0
	call	_ZN4core3fmt9Formatter15debug_upper_hex17he827cad4c6077043E@plt
	beqz	a0, .LBB105_4
	mv	a0, s1
	mv	a1, s0
	ld	ra, 24(sp)
	ld	s0, 16(sp)
	ld	s1, 8(sp)
	addi	sp, sp, 32
	tail	_ZN4core3fmt3num53_$LT$impl$u20$core..fmt..UpperHex$u20$for$u20$i64$GT$3fmt17h9320ef6543d02b8cE@plt
.LBB105_4:
	mv	a0, s1
	mv	a1, s0
	ld	ra, 24(sp)
	ld	s0, 16(sp)
	ld	s1, 8(sp)
	addi	sp, sp, 32
	tail	_ZN4core3fmt3num3imp52_$LT$impl$u20$core..fmt..Display$u20$for$u20$i64$GT$3fmt17hb1b5a134208d1067E@plt
.Lfunc_end105:
	.size	_ZN42_$LT$$RF$T$u20$as$u20$core..fmt..Debug$GT$3fmt17hadb1a9d76fd05cc6E, .Lfunc_end105-_ZN42_$LT$$RF$T$u20$as$u20$core..fmt..Debug$GT$3fmt17hadb1a9d76fd05cc6E
	.cfi_endproc

	.section	".text._ZN42_$LT$$RF$T$u20$as$u20$core..fmt..Debug$GT$3fmt17hade748637a94f54fE","ax",@progbits
	.p2align	1
	.type	_ZN42_$LT$$RF$T$u20$as$u20$core..fmt..Debug$GT$3fmt17hade748637a94f54fE,@function
_ZN42_$LT$$RF$T$u20$as$u20$core..fmt..Debug$GT$3fmt17hade748637a94f54fE:
	.cfi_startproc
	addi	sp, sp, -16
	.cfi_def_cfa_offset 16
	sd	ra, 8(sp)
	.cfi_offset ra, -8
	ld	a2, 0(a0)
	ld	a3, 0(a2)
	mv	a0, a1
	beqz	a3, .LBB106_2
	sd	a2, 0(sp)
.Lpcrel_hi276:
	auipc	a1, %pcrel_hi(.L__unnamed_65)
	addi	a1, a1, %pcrel_lo(.Lpcrel_hi276)
.Lpcrel_hi277:
	auipc	a2, %pcrel_hi(.L__unnamed_66)
	addi	a4, a2, %pcrel_lo(.Lpcrel_hi277)
	li	a2, 4
	mv	a3, sp
	call	_ZN4core3fmt9Formatter25debug_tuple_field1_finish17h2c8f4c389c486260E@plt
	ld	ra, 8(sp)
	addi	sp, sp, 16
	ret
.LBB106_2:
.Lpcrel_hi275:
	auipc	a1, %pcrel_hi(.L__unnamed_67)
	addi	a1, a1, %pcrel_lo(.Lpcrel_hi275)
	li	a2, 4
	ld	ra, 8(sp)
	addi	sp, sp, 16
	tail	_ZN4core3fmt9Formatter9write_str17h6a12f92004fea676E@plt
.Lfunc_end106:
	.size	_ZN42_$LT$$RF$T$u20$as$u20$core..fmt..Debug$GT$3fmt17hade748637a94f54fE, .Lfunc_end106-_ZN42_$LT$$RF$T$u20$as$u20$core..fmt..Debug$GT$3fmt17hade748637a94f54fE
	.cfi_endproc

	.section	".text._ZN42_$LT$$RF$T$u20$as$u20$core..fmt..Debug$GT$3fmt17hb58b2fff53f3ef21E","ax",@progbits
	.p2align	1
	.type	_ZN42_$LT$$RF$T$u20$as$u20$core..fmt..Debug$GT$3fmt17hb58b2fff53f3ef21E,@function
_ZN42_$LT$$RF$T$u20$as$u20$core..fmt..Debug$GT$3fmt17hb58b2fff53f3ef21E:
	.cfi_startproc
	addi	sp, sp, -16
	.cfi_def_cfa_offset 16
	sd	ra, 8(sp)
	.cfi_offset ra, -8
	ld	a2, 0(a0)
	mv	a0, a1
	sd	a2, 0(sp)
.Lpcrel_hi278:
	auipc	a1, %pcrel_hi(.L__unnamed_138)
	addi	a1, a1, %pcrel_lo(.Lpcrel_hi278)
.Lpcrel_hi279:
	auipc	a2, %pcrel_hi(.L__unnamed_139)
	addi	a4, a2, %pcrel_lo(.Lpcrel_hi279)
	li	a2, 5
	mv	a3, sp
	call	_ZN4core3fmt9Formatter25debug_tuple_field1_finish17h2c8f4c389c486260E@plt
	ld	ra, 8(sp)
	addi	sp, sp, 16
	ret
.Lfunc_end107:
	.size	_ZN42_$LT$$RF$T$u20$as$u20$core..fmt..Debug$GT$3fmt17hb58b2fff53f3ef21E, .Lfunc_end107-_ZN42_$LT$$RF$T$u20$as$u20$core..fmt..Debug$GT$3fmt17hb58b2fff53f3ef21E
	.cfi_endproc

	.section	".text._ZN42_$LT$$RF$T$u20$as$u20$core..fmt..Debug$GT$3fmt17hb7594fd8639329e4E","ax",@progbits
	.p2align	1
	.type	_ZN42_$LT$$RF$T$u20$as$u20$core..fmt..Debug$GT$3fmt17hb7594fd8639329e4E,@function
_ZN42_$LT$$RF$T$u20$as$u20$core..fmt..Debug$GT$3fmt17hb7594fd8639329e4E:
	.cfi_startproc
	addi	sp, sp, -80
	.cfi_def_cfa_offset 80
	sd	ra, 72(sp)
	.cfi_offset ra, -8
	ld	a2, 0(a0)
	mv	a0, a1
	addi	a5, a2, 16
	addi	a1, a2, 8
	sd	a1, 64(sp)
.Lpcrel_hi280:
	auipc	a1, %pcrel_hi(.L__unnamed_53)
	addi	a1, a1, %pcrel_lo(.Lpcrel_hi280)
	sd	a1, 48(sp)
	addi	a1, sp, 64
	sd	a1, 40(sp)
	li	a1, 10
	sd	a1, 32(sp)
.Lpcrel_hi281:
	auipc	a1, %pcrel_hi(.L__unnamed_140)
	addi	a1, a1, %pcrel_lo(.Lpcrel_hi281)
	sd	a1, 24(sp)
.Lpcrel_hi282:
	auipc	a1, %pcrel_hi(.L__unnamed_84)
	addi	a1, a1, %pcrel_lo(.Lpcrel_hi282)
	sd	a1, 16(sp)
	sd	a2, 8(sp)
	li	t0, 7
.Lpcrel_hi283:
	auipc	a1, %pcrel_hi(.L__unnamed_141)
	addi	a1, a1, %pcrel_lo(.Lpcrel_hi283)
.Lpcrel_hi284:
	auipc	a2, %pcrel_hi(.L__unnamed_142)
	addi	a3, a2, %pcrel_lo(.Lpcrel_hi284)
.Lpcrel_hi285:
	auipc	a2, %pcrel_hi(.L__unnamed_143)
	addi	a6, a2, %pcrel_lo(.Lpcrel_hi285)
.Lpcrel_hi286:
	auipc	a2, %pcrel_hi(.L__unnamed_144)
	addi	a7, a2, %pcrel_lo(.Lpcrel_hi286)
	li	a2, 12
	li	a4, 5
	sd	t0, 0(sp)
	call	_ZN4core3fmt9Formatter26debug_struct_field3_finish17he155e9f6b05892a1E@plt
	ld	ra, 72(sp)
	addi	sp, sp, 80
	ret
.Lfunc_end108:
	.size	_ZN42_$LT$$RF$T$u20$as$u20$core..fmt..Debug$GT$3fmt17hb7594fd8639329e4E, .Lfunc_end108-_ZN42_$LT$$RF$T$u20$as$u20$core..fmt..Debug$GT$3fmt17hb7594fd8639329e4E
	.cfi_endproc

	.section	".text._ZN42_$LT$$RF$T$u20$as$u20$core..fmt..Debug$GT$3fmt17hbba8bf1ec59ee176E","ax",@progbits
	.p2align	1
	.type	_ZN42_$LT$$RF$T$u20$as$u20$core..fmt..Debug$GT$3fmt17hbba8bf1ec59ee176E,@function
_ZN42_$LT$$RF$T$u20$as$u20$core..fmt..Debug$GT$3fmt17hbba8bf1ec59ee176E:
.Lfunc_begin23:
	.cfi_startproc
	.cfi_personality 155, DW.ref.rust_eh_personality
	.cfi_lsda 27, .Lexception23
	addi	sp, sp, -64
	.cfi_def_cfa_offset 64
	sd	ra, 56(sp)
	sd	s0, 48(sp)
	sd	s1, 40(sp)
	sd	s2, 32(sp)
	sd	s3, 24(sp)
	.cfi_offset ra, -8
	.cfi_offset s0, -16
	.cfi_offset s1, -24
	.cfi_offset s2, -32
	.cfi_offset s3, -40
	ld	s0, 0(a0)
.Lpcrel_hi287:
	auipc	a0, %pcrel_hi(.L__unnamed_59)
	addi	a2, a0, %pcrel_lo(.Lpcrel_hi287)
	mv	a0, sp
	li	a3, 5
	call	_ZN4core3fmt9Formatter12debug_struct17hc0fa802c913860d0E@plt
	li	a0, 1
.LBB109_18:
	lr.w.aq	a1, (s0)
	bnez	a1, .LBB109_4
	sc.w	a2, a0, (s0)
	bnez	a2, .LBB109_18
.Lpcrel_hi288:
	auipc	a0, %got_pcrel_hi(_ZN3std9panicking11panic_count18GLOBAL_PANIC_COUNT17h813e628f0cb26d91E)
	ld	s1, %pcrel_lo(.Lpcrel_hi288)(a0)
	ld	a0, 0(s1)
	slli	a0, a0, 1
	li	s2, -1
	bnez	a0, .LBB109_5
	li	s3, 0
	lb	a1, 4(s0)
	srli	s2, s2, 1
	addi	a0, s0, 8
	beqz	a1, .LBB109_6
.LBB109_3:
	sd	a0, 16(sp)
.Ltmp285:
.Lpcrel_hi292:
	auipc	a0, %pcrel_hi(.L__unnamed_60)
	addi	a1, a0, %pcrel_lo(.Lpcrel_hi292)
.Lpcrel_hi293:
	auipc	a0, %pcrel_hi(.L__unnamed_145)
	addi	a4, a0, %pcrel_lo(.Lpcrel_hi293)
	mv	a0, sp
	li	a2, 4
	addi	a3, sp, 16
	call	_ZN4core3fmt8builders11DebugStruct5field17h6f896db0b51e77caE@plt
.Ltmp286:
	j	.LBB109_7
.LBB109_4:
.Lpcrel_hi289:
	auipc	a0, %pcrel_hi(.L__unnamed_60)
	addi	a1, a0, %pcrel_lo(.Lpcrel_hi289)
.Lpcrel_hi290:
	auipc	a0, %pcrel_hi(.L__unnamed_15)
	addi	a3, a0, %pcrel_lo(.Lpcrel_hi290)
.Lpcrel_hi291:
	auipc	a0, %pcrel_hi(.L__unnamed_62)
	addi	a4, a0, %pcrel_lo(.Lpcrel_hi291)
	mv	a0, sp
	li	a2, 4
	call	_ZN4core3fmt8builders11DebugStruct5field17h6f896db0b51e77caE@plt
	j	.LBB109_10
.LBB109_5:
	call	_ZN3std9panicking11panic_count17is_zero_slow_path17he417053412855f77E@plt
	xori	s3, a0, 1
	lb	a1, 4(s0)
	srli	s2, s2, 1
	addi	a0, s0, 8
	bnez	a1, .LBB109_3
.LBB109_6:
	sd	a0, 16(sp)
.Ltmp290:
.Lpcrel_hi294:
	auipc	a0, %pcrel_hi(.L__unnamed_60)
	addi	a1, a0, %pcrel_lo(.Lpcrel_hi294)
.Lpcrel_hi295:
	auipc	a0, %pcrel_hi(.L__unnamed_145)
	addi	a4, a0, %pcrel_lo(.Lpcrel_hi295)
	mv	a0, sp
	li	a2, 4
	addi	a3, sp, 16
	call	_ZN4core3fmt8builders11DebugStruct5field17h6f896db0b51e77caE@plt
.Ltmp291:
.LBB109_7:
	bnez	s3, .LBB109_9
	ld	a0, 0(s1)
	and	a0, a0, s2
	bnez	a0, .LBB109_12
.LBB109_9:
	amoswap.w.rl	a0, zero, (s0)
	li	a1, 2
	beq	a0, a1, .LBB109_11
.LBB109_10:
	lb	a0, 4(s0)
	snez	a0, a0
	sb	a0, 16(sp)
.Lpcrel_hi296:
	auipc	a0, %pcrel_hi(.L__unnamed_63)
	addi	a1, a0, %pcrel_lo(.Lpcrel_hi296)
.Lpcrel_hi297:
	auipc	a0, %pcrel_hi(.L__unnamed_33)
	addi	a4, a0, %pcrel_lo(.Lpcrel_hi297)
	mv	a0, sp
	li	a2, 8
	addi	a3, sp, 16
	call	_ZN4core3fmt8builders11DebugStruct5field17h6f896db0b51e77caE@plt
	mv	a0, sp
	call	_ZN4core3fmt8builders11DebugStruct21finish_non_exhaustive17h83b2a07b490175b3E@plt
	ld	ra, 56(sp)
	ld	s0, 48(sp)
	ld	s1, 40(sp)
	ld	s2, 32(sp)
	ld	s3, 24(sp)
	addi	sp, sp, 64
	ret
.LBB109_11:
	mv	a0, s0
	call	_ZN3std3sys4unix5locks11futex_mutex5Mutex4wake17h5ccb808587248eb1E@plt
	j	.LBB109_10
.LBB109_12:
	call	_ZN3std9panicking11panic_count17is_zero_slow_path17he417053412855f77E@plt
	bnez	a0, .LBB109_9
	li	a0, 1
	sb	a0, 4(s0)
	j	.LBB109_9
.LBB109_14:
.Ltmp292:
	mv	s2, a0
.Ltmp293:
	mv	a0, s0
	mv	a1, s3
	call	_ZN4core3ptr121drop_in_place$LT$std..sync..poison..PoisonError$LT$std..sync..mutex..MutexGuard$LT$tokio..io..util..mem..Pipe$GT$$GT$$GT$17haeaff8cb67a08524E
.Ltmp294:
	j	.LBB109_16
.LBB109_15:
.Ltmp287:
	mv	s2, a0
.Ltmp288:
	mv	a0, s0
	mv	a1, s3
	call	_ZN4core3ptr121drop_in_place$LT$std..sync..poison..PoisonError$LT$std..sync..mutex..MutexGuard$LT$tokio..io..util..mem..Pipe$GT$$GT$$GT$17haeaff8cb67a08524E
.Ltmp289:
.LBB109_16:
	mv	a0, s2
	call	_Unwind_Resume@plt
	unimp	
.LBB109_17:
.Ltmp295:
	call	_ZN4core9panicking19panic_cannot_unwind17h7b6652c0f2f24b81E@plt
	unimp	
.Lfunc_end109:
	.size	_ZN42_$LT$$RF$T$u20$as$u20$core..fmt..Debug$GT$3fmt17hbba8bf1ec59ee176E, .Lfunc_end109-_ZN42_$LT$$RF$T$u20$as$u20$core..fmt..Debug$GT$3fmt17hbba8bf1ec59ee176E
	.cfi_endproc
	.section	".gcc_except_table._ZN42_$LT$$RF$T$u20$as$u20$core..fmt..Debug$GT$3fmt17hbba8bf1ec59ee176E","a",@progbits
	.p2align	2, 0x0
GCC_except_table109:
.Lexception23:
	.byte	255
	.byte	255
	.byte	3
	.uleb128 .Lcst_end23-.Lcst_begin23
.Lcst_begin23:
	.word	.Lfunc_begin23-.Lfunc_begin23
	.word	.Ltmp285-.Lfunc_begin23
	.word	0
	.byte	0
	.word	.Ltmp285-.Lfunc_begin23
	.word	.Ltmp286-.Ltmp285
	.word	.Ltmp287-.Lfunc_begin23
	.byte	0
	.word	.Ltmp286-.Lfunc_begin23
	.word	.Ltmp290-.Ltmp286
	.word	0
	.byte	0
	.word	.Ltmp290-.Lfunc_begin23
	.word	.Ltmp291-.Ltmp290
	.word	.Ltmp292-.Lfunc_begin23
	.byte	0
	.word	.Ltmp291-.Lfunc_begin23
	.word	.Ltmp293-.Ltmp291
	.word	0
	.byte	0
	.word	.Ltmp293-.Lfunc_begin23
	.word	.Ltmp289-.Ltmp293
	.word	.Ltmp295-.Lfunc_begin23
	.byte	0
	.word	.Ltmp289-.Lfunc_begin23
	.word	.Lfunc_end109-.Ltmp289
	.word	0
	.byte	0
.Lcst_end23:
	.p2align	2, 0x0

	.section	".text._ZN42_$LT$$RF$T$u20$as$u20$core..fmt..Debug$GT$3fmt17hbc4d3874c4ca20e0E","ax",@progbits
	.p2align	1
	.type	_ZN42_$LT$$RF$T$u20$as$u20$core..fmt..Debug$GT$3fmt17hbc4d3874c4ca20e0E,@function
_ZN42_$LT$$RF$T$u20$as$u20$core..fmt..Debug$GT$3fmt17hbc4d3874c4ca20e0E:
	.cfi_startproc
	addi	sp, sp, -16
	.cfi_def_cfa_offset 16
	sd	ra, 8(sp)
	.cfi_offset ra, -8
	ld	a2, 0(a0)
	lhu	a3, 0(a2)
	li	a4, 2
	mv	a0, a1
	bne	a3, a4, .LBB110_2
.Lpcrel_hi298:
	auipc	a1, %pcrel_hi(.L__unnamed_67)
	addi	a1, a1, %pcrel_lo(.Lpcrel_hi298)
	li	a2, 4
	ld	ra, 8(sp)
	addi	sp, sp, 16
	tail	_ZN4core3fmt9Formatter9write_str17h6a12f92004fea676E@plt
.LBB110_2:
	sd	a2, 0(sp)
.Lpcrel_hi299:
	auipc	a1, %pcrel_hi(.L__unnamed_65)
	addi	a1, a1, %pcrel_lo(.Lpcrel_hi299)
.Lpcrel_hi300:
	auipc	a2, %pcrel_hi(.L__unnamed_146)
	addi	a4, a2, %pcrel_lo(.Lpcrel_hi300)
	li	a2, 4
	mv	a3, sp
	call	_ZN4core3fmt9Formatter25debug_tuple_field1_finish17h2c8f4c389c486260E@plt
	ld	ra, 8(sp)
	addi	sp, sp, 16
	ret
.Lfunc_end110:
	.size	_ZN42_$LT$$RF$T$u20$as$u20$core..fmt..Debug$GT$3fmt17hbc4d3874c4ca20e0E, .Lfunc_end110-_ZN42_$LT$$RF$T$u20$as$u20$core..fmt..Debug$GT$3fmt17hbc4d3874c4ca20e0E
	.cfi_endproc

	.section	".text._ZN42_$LT$$RF$T$u20$as$u20$core..fmt..Debug$GT$3fmt17hbf12b54c9f7ccb4bE","ax",@progbits
	.p2align	1
	.type	_ZN42_$LT$$RF$T$u20$as$u20$core..fmt..Debug$GT$3fmt17hbf12b54c9f7ccb4bE,@function
_ZN42_$LT$$RF$T$u20$as$u20$core..fmt..Debug$GT$3fmt17hbf12b54c9f7ccb4bE:
	.cfi_startproc
	ld	a2, 0(a0)
	ld	a3, 8(a0)
	mv	a4, a1
	mv	a0, a2
	mv	a1, a3
	mv	a2, a4
	tail	_ZN40_$LT$str$u20$as$u20$core..fmt..Debug$GT$3fmt17hbd011296d6a8ff08E@plt
.Lfunc_end111:
	.size	_ZN42_$LT$$RF$T$u20$as$u20$core..fmt..Debug$GT$3fmt17hbf12b54c9f7ccb4bE, .Lfunc_end111-_ZN42_$LT$$RF$T$u20$as$u20$core..fmt..Debug$GT$3fmt17hbf12b54c9f7ccb4bE
	.cfi_endproc

	.section	".text._ZN42_$LT$$RF$T$u20$as$u20$core..fmt..Debug$GT$3fmt17hc252d495e7ca7557E","ax",@progbits
	.p2align	1
	.type	_ZN42_$LT$$RF$T$u20$as$u20$core..fmt..Debug$GT$3fmt17hc252d495e7ca7557E,@function
_ZN42_$LT$$RF$T$u20$as$u20$core..fmt..Debug$GT$3fmt17hc252d495e7ca7557E:
	.cfi_startproc
	addi	sp, sp, -112
	.cfi_def_cfa_offset 112
	sd	ra, 104(sp)
	.cfi_offset ra, -8
	ld	a2, 0(a0)
	mv	a0, a1
	addi	a5, a2, 208
	addi	a1, a2, 192
	sd	a2, 96(sp)
.Lpcrel_hi301:
	auipc	a3, %pcrel_hi(.L__unnamed_147)
	addi	a3, a3, %pcrel_lo(.Lpcrel_hi301)
	sd	a3, 80(sp)
	addi	a3, sp, 96
	sd	a3, 72(sp)
	li	a3, 2
	sd	a3, 64(sp)
.Lpcrel_hi302:
	auipc	a3, %pcrel_hi(.L__unnamed_148)
	addi	a3, a3, %pcrel_lo(.Lpcrel_hi302)
	sd	a3, 56(sp)
.Lpcrel_hi303:
	auipc	a3, %pcrel_hi(.L__unnamed_149)
	addi	a3, a3, %pcrel_lo(.Lpcrel_hi303)
	sd	a3, 48(sp)
	sd	a1, 40(sp)
	li	a1, 16
	sd	a1, 32(sp)
.Lpcrel_hi304:
	auipc	a1, %pcrel_hi(.L__unnamed_150)
	addi	a1, a1, %pcrel_lo(.Lpcrel_hi304)
	sd	a1, 24(sp)
.Lpcrel_hi305:
	auipc	a1, %pcrel_hi(.L__unnamed_151)
	addi	a1, a1, %pcrel_lo(.Lpcrel_hi305)
	sd	a1, 16(sp)
	sd	a2, 8(sp)
	li	t0, 5
.Lpcrel_hi306:
	auipc	a1, %pcrel_hi(.L__unnamed_152)
	addi	a1, a1, %pcrel_lo(.Lpcrel_hi306)
.Lpcrel_hi307:
	auipc	a2, %pcrel_hi(.L__unnamed_153)
	addi	a3, a2, %pcrel_lo(.Lpcrel_hi307)
.Lpcrel_hi308:
	auipc	a2, %pcrel_hi(.L__unnamed_45)
	addi	a6, a2, %pcrel_lo(.Lpcrel_hi308)
.Lpcrel_hi309:
	auipc	a2, %pcrel_hi(.L__unnamed_39)
	addi	a7, a2, %pcrel_lo(.Lpcrel_hi309)
	li	a2, 10
	li	a4, 6
	sd	t0, 0(sp)
	call	_ZN4core3fmt9Formatter26debug_struct_field4_finish17h201dd84ddbdba56fE@plt
	ld	ra, 104(sp)
	addi	sp, sp, 112
	ret
.Lfunc_end112:
	.size	_ZN42_$LT$$RF$T$u20$as$u20$core..fmt..Debug$GT$3fmt17hc252d495e7ca7557E, .Lfunc_end112-_ZN42_$LT$$RF$T$u20$as$u20$core..fmt..Debug$GT$3fmt17hc252d495e7ca7557E
	.cfi_endproc

	.section	".text._ZN42_$LT$$RF$T$u20$as$u20$core..fmt..Debug$GT$3fmt17hc2e873d3db7df7c8E","ax",@progbits
	.p2align	1
	.type	_ZN42_$LT$$RF$T$u20$as$u20$core..fmt..Debug$GT$3fmt17hc2e873d3db7df7c8E,@function
_ZN42_$LT$$RF$T$u20$as$u20$core..fmt..Debug$GT$3fmt17hc2e873d3db7df7c8E:
	.cfi_startproc
	addi	sp, sp, -32
	.cfi_def_cfa_offset 32
	sd	ra, 24(sp)
	sd	s0, 16(sp)
	.cfi_offset ra, -8
	.cfi_offset s0, -16
	ld	a0, 0(a0)
	ld	s0, 0(a0)
.Lpcrel_hi310:
	auipc	a0, %pcrel_hi(.L__unnamed_28)
	addi	a2, a0, %pcrel_lo(.Lpcrel_hi310)
	mv	a0, sp
	li	a3, 11
	call	_ZN4core3fmt9Formatter12debug_struct17hc0fa802c913860d0E@plt
	addi	a3, s0, 16
.Lpcrel_hi311:
	auipc	a0, %pcrel_hi(.L__unnamed_29)
	addi	a1, a0, %pcrel_lo(.Lpcrel_hi311)
.Lpcrel_hi312:
	auipc	a0, %pcrel_hi(.L__unnamed_154)
	addi	a4, a0, %pcrel_lo(.Lpcrel_hi312)
	mv	a0, sp
	li	a2, 2
	call	_ZN4core3fmt8builders11DebugStruct5field17h6f896db0b51e77caE@plt
	call	_ZN4core3fmt8builders11DebugStruct6finish17h6d43ebeff4cf57a9E@plt
	ld	ra, 24(sp)
	ld	s0, 16(sp)
	addi	sp, sp, 32
	ret
.Lfunc_end113:
	.size	_ZN42_$LT$$RF$T$u20$as$u20$core..fmt..Debug$GT$3fmt17hc2e873d3db7df7c8E, .Lfunc_end113-_ZN42_$LT$$RF$T$u20$as$u20$core..fmt..Debug$GT$3fmt17hc2e873d3db7df7c8E
	.cfi_endproc

	.section	".text._ZN42_$LT$$RF$T$u20$as$u20$core..fmt..Debug$GT$3fmt17hc4b5fa826c00bbdeE","ax",@progbits
	.p2align	1
	.type	_ZN42_$LT$$RF$T$u20$as$u20$core..fmt..Debug$GT$3fmt17hc4b5fa826c00bbdeE,@function
_ZN42_$LT$$RF$T$u20$as$u20$core..fmt..Debug$GT$3fmt17hc4b5fa826c00bbdeE:
	.cfi_startproc
	addi	sp, sp, -32
	.cfi_def_cfa_offset 32
	sd	ra, 24(sp)
	sd	s0, 16(sp)
	.cfi_offset ra, -8
	.cfi_offset s0, -16
	ld	a0, 0(a0)
	ld	s0, 0(a0)
.Lpcrel_hi313:
	auipc	a0, %pcrel_hi(.L__unnamed_28)
	addi	a2, a0, %pcrel_lo(.Lpcrel_hi313)
	mv	a0, sp
	li	a3, 11
	call	_ZN4core3fmt9Formatter12debug_struct17hc0fa802c913860d0E@plt
	addi	a3, s0, 32
.Lpcrel_hi314:
	auipc	a0, %pcrel_hi(.L__unnamed_29)
	addi	a1, a0, %pcrel_lo(.Lpcrel_hi314)
.Lpcrel_hi315:
	auipc	a0, %pcrel_hi(.L__unnamed_154)
	addi	a4, a0, %pcrel_lo(.Lpcrel_hi315)
	mv	a0, sp
	li	a2, 2
	call	_ZN4core3fmt8builders11DebugStruct5field17h6f896db0b51e77caE@plt
	call	_ZN4core3fmt8builders11DebugStruct6finish17h6d43ebeff4cf57a9E@plt
	ld	ra, 24(sp)
	ld	s0, 16(sp)
	addi	sp, sp, 32
	ret
.Lfunc_end114:
	.size	_ZN42_$LT$$RF$T$u20$as$u20$core..fmt..Debug$GT$3fmt17hc4b5fa826c00bbdeE, .Lfunc_end114-_ZN42_$LT$$RF$T$u20$as$u20$core..fmt..Debug$GT$3fmt17hc4b5fa826c00bbdeE
	.cfi_endproc

	.section	".text._ZN42_$LT$$RF$T$u20$as$u20$core..fmt..Debug$GT$3fmt17hca55b3f608129805E","ax",@progbits
	.p2align	1
	.type	_ZN42_$LT$$RF$T$u20$as$u20$core..fmt..Debug$GT$3fmt17hca55b3f608129805E,@function
_ZN42_$LT$$RF$T$u20$as$u20$core..fmt..Debug$GT$3fmt17hca55b3f608129805E:
	.cfi_startproc
	addi	sp, sp, -48
	.cfi_def_cfa_offset 48
	sd	ra, 40(sp)
	.cfi_offset ra, -8
	ld	a5, 0(a0)
	mv	a0, a1
	addi	a1, a5, 8
	sd	a1, 32(sp)
.Lpcrel_hi316:
	auipc	a1, %pcrel_hi(.L__unnamed_37)
	addi	a1, a1, %pcrel_lo(.Lpcrel_hi316)
	sd	a1, 16(sp)
	addi	a1, sp, 32
	sd	a1, 8(sp)
	li	t0, 16
.Lpcrel_hi317:
	auipc	a1, %pcrel_hi(.L__unnamed_38)
	addi	a1, a1, %pcrel_lo(.Lpcrel_hi317)
.Lpcrel_hi318:
	auipc	a2, %pcrel_hi(.L__unnamed_39)
	addi	a3, a2, %pcrel_lo(.Lpcrel_hi318)
.Lpcrel_hi319:
	auipc	a2, %pcrel_hi(.L__unnamed_155)
	addi	a6, a2, %pcrel_lo(.Lpcrel_hi319)
.Lpcrel_hi320:
	auipc	a2, %pcrel_hi(.L__unnamed_41)
	addi	a7, a2, %pcrel_lo(.Lpcrel_hi320)
	li	a2, 14
	li	a4, 5
	sd	t0, 0(sp)
	call	_ZN4core3fmt9Formatter26debug_struct_field2_finish17h5ce2a2aff4d0f3e2E@plt
	ld	ra, 40(sp)
	addi	sp, sp, 48
	ret
.Lfunc_end115:
	.size	_ZN42_$LT$$RF$T$u20$as$u20$core..fmt..Debug$GT$3fmt17hca55b3f608129805E, .Lfunc_end115-_ZN42_$LT$$RF$T$u20$as$u20$core..fmt..Debug$GT$3fmt17hca55b3f608129805E
	.cfi_endproc

	.section	".text._ZN42_$LT$$RF$T$u20$as$u20$core..fmt..Debug$GT$3fmt17hcda350fb41d3b2aaE","ax",@progbits
	.p2align	1
	.type	_ZN42_$LT$$RF$T$u20$as$u20$core..fmt..Debug$GT$3fmt17hcda350fb41d3b2aaE,@function
_ZN42_$LT$$RF$T$u20$as$u20$core..fmt..Debug$GT$3fmt17hcda350fb41d3b2aaE:
	.cfi_startproc
	addi	sp, sp, -32
	.cfi_def_cfa_offset 32
	sd	ra, 24(sp)
	sd	s0, 16(sp)
	sd	s1, 8(sp)
	.cfi_offset ra, -8
	.cfi_offset s0, -16
	.cfi_offset s1, -24
	ld	s1, 0(a0)
	mv	s0, a1
	mv	a0, a1
	call	_ZN4core3fmt9Formatter15debug_lower_hex17h997a8feb780e79d7E@plt
	beqz	a0, .LBB116_2
	mv	a0, s1
	mv	a1, s0
	ld	ra, 24(sp)
	ld	s0, 16(sp)
	ld	s1, 8(sp)
	addi	sp, sp, 32
	tail	_ZN4core3fmt3num53_$LT$impl$u20$core..fmt..LowerHex$u20$for$u20$u64$GT$3fmt17h007730732f7a1398E@plt
.LBB116_2:
	mv	a0, s0
	call	_ZN4core3fmt9Formatter15debug_upper_hex17he827cad4c6077043E@plt
	beqz	a0, .LBB116_4
	mv	a0, s1
	mv	a1, s0
	ld	ra, 24(sp)
	ld	s0, 16(sp)
	ld	s1, 8(sp)
	addi	sp, sp, 32
	tail	_ZN4core3fmt3num53_$LT$impl$u20$core..fmt..UpperHex$u20$for$u20$u64$GT$3fmt17h7bf9b8d1271d791dE@plt
.LBB116_4:
	mv	a0, s1
	mv	a1, s0
	ld	ra, 24(sp)
	ld	s0, 16(sp)
	ld	s1, 8(sp)
	addi	sp, sp, 32
	tail	_ZN4core3fmt3num3imp52_$LT$impl$u20$core..fmt..Display$u20$for$u20$u64$GT$3fmt17hd8e5764dbbde4421E@plt
.Lfunc_end116:
	.size	_ZN42_$LT$$RF$T$u20$as$u20$core..fmt..Debug$GT$3fmt17hcda350fb41d3b2aaE, .Lfunc_end116-_ZN42_$LT$$RF$T$u20$as$u20$core..fmt..Debug$GT$3fmt17hcda350fb41d3b2aaE
	.cfi_endproc

	.section	".text._ZN42_$LT$$RF$T$u20$as$u20$core..fmt..Debug$GT$3fmt17hd176ba740ed61027E","ax",@progbits
	.p2align	1
	.type	_ZN42_$LT$$RF$T$u20$as$u20$core..fmt..Debug$GT$3fmt17hd176ba740ed61027E,@function
_ZN42_$LT$$RF$T$u20$as$u20$core..fmt..Debug$GT$3fmt17hd176ba740ed61027E:
	.cfi_startproc
	ld	a0, 0(a0)
	tail	_ZN64_$LT$core..marker..PhantomPinned$u20$as$u20$core..fmt..Debug$GT$3fmt17hb863ce661c916d56E@plt
.Lfunc_end117:
	.size	_ZN42_$LT$$RF$T$u20$as$u20$core..fmt..Debug$GT$3fmt17hd176ba740ed61027E, .Lfunc_end117-_ZN42_$LT$$RF$T$u20$as$u20$core..fmt..Debug$GT$3fmt17hd176ba740ed61027E
	.cfi_endproc

	.section	".text._ZN42_$LT$$RF$T$u20$as$u20$core..fmt..Debug$GT$3fmt17hd8b094589a6806abE","ax",@progbits
	.p2align	1
	.type	_ZN42_$LT$$RF$T$u20$as$u20$core..fmt..Debug$GT$3fmt17hd8b094589a6806abE,@function
_ZN42_$LT$$RF$T$u20$as$u20$core..fmt..Debug$GT$3fmt17hd8b094589a6806abE:
	.cfi_startproc
	addi	sp, sp, -32
	.cfi_def_cfa_offset 32
	sd	ra, 24(sp)
	.cfi_offset ra, -8
.Lpcrel_hi321:
	auipc	a0, %pcrel_hi(.L__unnamed_87)
	addi	a2, a0, %pcrel_lo(.Lpcrel_hi321)
	addi	a0, sp, 8
	li	a3, 11
	call	_ZN4core3fmt9Formatter12debug_struct17hc0fa802c913860d0E@plt
	addi	a0, sp, 8
	call	_ZN4core3fmt8builders11DebugStruct6finish17h6d43ebeff4cf57a9E@plt
	ld	ra, 24(sp)
	addi	sp, sp, 32
	ret
.Lfunc_end118:
	.size	_ZN42_$LT$$RF$T$u20$as$u20$core..fmt..Debug$GT$3fmt17hd8b094589a6806abE, .Lfunc_end118-_ZN42_$LT$$RF$T$u20$as$u20$core..fmt..Debug$GT$3fmt17hd8b094589a6806abE
	.cfi_endproc

	.section	".text._ZN42_$LT$$RF$T$u20$as$u20$core..fmt..Debug$GT$3fmt17hd91f1adbe8753c4fE","ax",@progbits
	.p2align	1
	.type	_ZN42_$LT$$RF$T$u20$as$u20$core..fmt..Debug$GT$3fmt17hd91f1adbe8753c4fE,@function
_ZN42_$LT$$RF$T$u20$as$u20$core..fmt..Debug$GT$3fmt17hd91f1adbe8753c4fE:
	.cfi_startproc
	addi	sp, sp, -32
	.cfi_def_cfa_offset 32
	sd	ra, 24(sp)
	.cfi_offset ra, -8
.Lpcrel_hi322:
	auipc	a0, %pcrel_hi(.L__unnamed_156)
	addi	a2, a0, %pcrel_lo(.Lpcrel_hi322)
	addi	a0, sp, 8
	li	a3, 17
	call	_ZN4core3fmt9Formatter12debug_struct17hc0fa802c913860d0E@plt
	addi	a0, sp, 8
	call	_ZN4core3fmt8builders11DebugStruct6finish17h6d43ebeff4cf57a9E@plt
	ld	ra, 24(sp)
	addi	sp, sp, 32
	ret
.Lfunc_end119:
	.size	_ZN42_$LT$$RF$T$u20$as$u20$core..fmt..Debug$GT$3fmt17hd91f1adbe8753c4fE, .Lfunc_end119-_ZN42_$LT$$RF$T$u20$as$u20$core..fmt..Debug$GT$3fmt17hd91f1adbe8753c4fE
	.cfi_endproc

	.section	".text._ZN42_$LT$$RF$T$u20$as$u20$core..fmt..Debug$GT$3fmt17hdc7903aaa1c6c70fE","ax",@progbits
	.p2align	1
	.type	_ZN42_$LT$$RF$T$u20$as$u20$core..fmt..Debug$GT$3fmt17hdc7903aaa1c6c70fE,@function
_ZN42_$LT$$RF$T$u20$as$u20$core..fmt..Debug$GT$3fmt17hdc7903aaa1c6c70fE:
	.cfi_startproc
	addi	sp, sp, -144
	.cfi_def_cfa_offset 144
	sd	ra, 136(sp)
	.cfi_offset ra, -8
	ld	a0, 0(a0)
	ld	a2, 0(a0)
	mv	a0, a1
	addi	a1, a2, 16
	addi	a5, a2, 80
	addi	a6, a2, 104
	addi	a4, a2, 112
	addi	a2, a2, 48
	sd	a2, 128(sp)
.Lpcrel_hi323:
	auipc	a2, %pcrel_hi(.L__unnamed_157)
	addi	a2, a2, %pcrel_lo(.Lpcrel_hi323)
	sd	a2, 112(sp)
	addi	a2, sp, 128
	sd	a2, 104(sp)
	li	a2, 9
	sd	a2, 96(sp)
.Lpcrel_hi324:
	auipc	a3, %pcrel_hi(.L__unnamed_158)
	addi	a3, a3, %pcrel_lo(.Lpcrel_hi324)
	sd	a3, 88(sp)
.Lpcrel_hi325:
	auipc	a3, %pcrel_hi(.L__unnamed_159)
	addi	a3, a3, %pcrel_lo(.Lpcrel_hi325)
	sd	a3, 80(sp)
	sd	a1, 72(sp)
	sd	a2, 64(sp)
.Lpcrel_hi326:
	auipc	a1, %pcrel_hi(.L__unnamed_160)
	addi	a1, a1, %pcrel_lo(.Lpcrel_hi326)
	sd	a1, 56(sp)
.Lpcrel_hi327:
	auipc	a1, %pcrel_hi(.L__unnamed_102)
	addi	a1, a1, %pcrel_lo(.Lpcrel_hi327)
	sd	a1, 48(sp)
	sd	a4, 40(sp)
	li	a1, 12
	sd	a1, 32(sp)
.Lpcrel_hi328:
	auipc	a1, %pcrel_hi(.L__unnamed_161)
	addi	a1, a1, %pcrel_lo(.Lpcrel_hi328)
	sd	a1, 24(sp)
.Lpcrel_hi329:
	auipc	a1, %pcrel_hi(.L__unnamed_162)
	addi	a1, a1, %pcrel_lo(.Lpcrel_hi329)
	sd	a1, 16(sp)
	sd	a6, 8(sp)
	li	t0, 5
.Lpcrel_hi330:
	auipc	a1, %pcrel_hi(.L__unnamed_163)
	addi	a1, a1, %pcrel_lo(.Lpcrel_hi330)
.Lpcrel_hi331:
	auipc	a2, %pcrel_hi(.L__unnamed_93)
	addi	a3, a2, %pcrel_lo(.Lpcrel_hi331)
.Lpcrel_hi332:
	auipc	a2, %pcrel_hi(.L__unnamed_164)
	addi	a6, a2, %pcrel_lo(.Lpcrel_hi332)
.Lpcrel_hi333:
	auipc	a2, %pcrel_hi(.L__unnamed_70)
	addi	a7, a2, %pcrel_lo(.Lpcrel_hi333)
	li	a2, 6
	li	a4, 5
	sd	t0, 0(sp)
	call	_ZN4core3fmt9Formatter26debug_struct_field5_finish17h26157a8a7330df3eE@plt
	ld	ra, 136(sp)
	addi	sp, sp, 144
	ret
.Lfunc_end120:
	.size	_ZN42_$LT$$RF$T$u20$as$u20$core..fmt..Debug$GT$3fmt17hdc7903aaa1c6c70fE, .Lfunc_end120-_ZN42_$LT$$RF$T$u20$as$u20$core..fmt..Debug$GT$3fmt17hdc7903aaa1c6c70fE
	.cfi_endproc

	.section	".text._ZN42_$LT$$RF$T$u20$as$u20$core..fmt..Debug$GT$3fmt17he3a0f6d606fda4d9E","ax",@progbits
	.p2align	1
	.type	_ZN42_$LT$$RF$T$u20$as$u20$core..fmt..Debug$GT$3fmt17he3a0f6d606fda4d9E,@function
_ZN42_$LT$$RF$T$u20$as$u20$core..fmt..Debug$GT$3fmt17he3a0f6d606fda4d9E:
	.cfi_startproc
	addi	sp, sp, -48
	.cfi_def_cfa_offset 48
	sd	ra, 40(sp)
	.cfi_offset ra, -8
	ld	a0, 0(a0)
	ld	a2, 0(a0)
	mv	a0, a1
	addi	a5, a2, 64
	sd	a2, 32(sp)
.Lpcrel_hi334:
	auipc	a1, %pcrel_hi(.L__unnamed_165)
	addi	a1, a1, %pcrel_lo(.Lpcrel_hi334)
	sd	a1, 16(sp)
	addi	a1, sp, 32
	sd	a1, 8(sp)
	li	t0, 7
.Lpcrel_hi335:
	auipc	a1, %pcrel_hi(.L__unnamed_166)
	addi	a1, a1, %pcrel_lo(.Lpcrel_hi335)
.Lpcrel_hi336:
	auipc	a2, %pcrel_hi(.L__unnamed_167)
	addi	a3, a2, %pcrel_lo(.Lpcrel_hi336)
.Lpcrel_hi337:
	auipc	a2, %pcrel_hi(.L__unnamed_102)
	addi	a6, a2, %pcrel_lo(.Lpcrel_hi337)
.Lpcrel_hi338:
	auipc	a2, %pcrel_hi(.L__unnamed_103)
	addi	a7, a2, %pcrel_lo(.Lpcrel_hi338)
	li	a2, 11
	li	a4, 9
	sd	t0, 0(sp)
	call	_ZN4core3fmt9Formatter26debug_struct_field2_finish17h5ce2a2aff4d0f3e2E@plt
	ld	ra, 40(sp)
	addi	sp, sp, 48
	ret
.Lfunc_end121:
	.size	_ZN42_$LT$$RF$T$u20$as$u20$core..fmt..Debug$GT$3fmt17he3a0f6d606fda4d9E, .Lfunc_end121-_ZN42_$LT$$RF$T$u20$as$u20$core..fmt..Debug$GT$3fmt17he3a0f6d606fda4d9E
	.cfi_endproc

	.section	".text._ZN42_$LT$$RF$T$u20$as$u20$core..fmt..Debug$GT$3fmt17he5e47a72e4e34e2dE","ax",@progbits
	.p2align	1
	.type	_ZN42_$LT$$RF$T$u20$as$u20$core..fmt..Debug$GT$3fmt17he5e47a72e4e34e2dE,@function
_ZN42_$LT$$RF$T$u20$as$u20$core..fmt..Debug$GT$3fmt17he5e47a72e4e34e2dE:
	.cfi_startproc
	addi	sp, sp, -80
	.cfi_def_cfa_offset 80
	sd	ra, 72(sp)
	.cfi_offset ra, -8
	ld	a0, 0(a0)
	ld	a2, 0(a0)
	mv	a0, a1
	addi	a5, a2, 16
	addi	a1, a2, 24
	addi	a2, a2, 32
	sd	a2, 64(sp)
.Lpcrel_hi339:
	auipc	a2, %pcrel_hi(.L__unnamed_168)
	addi	a2, a2, %pcrel_lo(.Lpcrel_hi339)
	sd	a2, 48(sp)
	addi	a2, sp, 64
	sd	a2, 40(sp)
	li	a2, 7
	sd	a2, 32(sp)
.Lpcrel_hi340:
	auipc	a2, %pcrel_hi(.L__unnamed_169)
	addi	a2, a2, %pcrel_lo(.Lpcrel_hi340)
	sd	a2, 24(sp)
.Lpcrel_hi341:
	auipc	a2, %pcrel_hi(.L__unnamed_170)
	addi	a2, a2, %pcrel_lo(.Lpcrel_hi341)
	sd	a2, 16(sp)
	sd	a1, 8(sp)
	li	t0, 5
.Lpcrel_hi342:
	auipc	a1, %pcrel_hi(.L__unnamed_69)
	addi	a1, a1, %pcrel_lo(.Lpcrel_hi342)
.Lpcrel_hi343:
	auipc	a2, %pcrel_hi(.L__unnamed_70)
	addi	a3, a2, %pcrel_lo(.Lpcrel_hi343)
.Lpcrel_hi344:
	auipc	a2, %pcrel_hi(.L__unnamed_102)
	addi	a6, a2, %pcrel_lo(.Lpcrel_hi344)
.Lpcrel_hi345:
	auipc	a2, %pcrel_hi(.L__unnamed_171)
	addi	a7, a2, %pcrel_lo(.Lpcrel_hi345)
	li	a2, 5
	li	a4, 5
	sd	t0, 0(sp)
	call	_ZN4core3fmt9Formatter26debug_struct_field3_finish17he155e9f6b05892a1E@plt
	ld	ra, 72(sp)
	addi	sp, sp, 80
	ret
.Lfunc_end122:
	.size	_ZN42_$LT$$RF$T$u20$as$u20$core..fmt..Debug$GT$3fmt17he5e47a72e4e34e2dE, .Lfunc_end122-_ZN42_$LT$$RF$T$u20$as$u20$core..fmt..Debug$GT$3fmt17he5e47a72e4e34e2dE
	.cfi_endproc

	.section	".text._ZN42_$LT$$RF$T$u20$as$u20$core..fmt..Debug$GT$3fmt17hf22bea1bea5897e5E","ax",@progbits
	.p2align	1
	.type	_ZN42_$LT$$RF$T$u20$as$u20$core..fmt..Debug$GT$3fmt17hf22bea1bea5897e5E,@function
_ZN42_$LT$$RF$T$u20$as$u20$core..fmt..Debug$GT$3fmt17hf22bea1bea5897e5E:
	.cfi_startproc
	addi	sp, sp, -144
	.cfi_def_cfa_offset 144
	sd	ra, 136(sp)
	.cfi_offset ra, -8
	ld	a5, 0(a0)
	mv	a0, a1
	addi	a1, a5, 72
	addi	a2, a5, 64
	addi	a3, a5, 32
	addi	a4, a5, 48
	sd	a4, 128(sp)
.Lpcrel_hi346:
	auipc	a4, %pcrel_hi(.L__unnamed_172)
	addi	a4, a4, %pcrel_lo(.Lpcrel_hi346)
	sd	a4, 112(sp)
	addi	a4, sp, 128
	sd	a4, 104(sp)
	li	a4, 11
	sd	a4, 96(sp)
.Lpcrel_hi347:
	auipc	a4, %pcrel_hi(.L__unnamed_173)
	addi	a4, a4, %pcrel_lo(.Lpcrel_hi347)
	sd	a4, 88(sp)
.Lpcrel_hi348:
	auipc	a4, %pcrel_hi(.L__unnamed_113)
	addi	a4, a4, %pcrel_lo(.Lpcrel_hi348)
	sd	a4, 80(sp)
	sd	a3, 72(sp)
	li	a3, 10
	sd	a3, 64(sp)
.Lpcrel_hi349:
	auipc	a3, %pcrel_hi(.L__unnamed_174)
	addi	a3, a3, %pcrel_lo(.Lpcrel_hi349)
	sd	a3, 56(sp)
.Lpcrel_hi350:
	auipc	a3, %pcrel_hi(.L__unnamed_84)
	addi	a3, a3, %pcrel_lo(.Lpcrel_hi350)
	sd	a3, 48(sp)
	sd	a2, 40(sp)
	li	a2, 12
	sd	a2, 32(sp)
.Lpcrel_hi351:
	auipc	a2, %pcrel_hi(.L__unnamed_175)
	addi	a2, a2, %pcrel_lo(.Lpcrel_hi351)
	sd	a2, 24(sp)
.Lpcrel_hi352:
	auipc	a2, %pcrel_hi(.L__unnamed_33)
	addi	a2, a2, %pcrel_lo(.Lpcrel_hi352)
	sd	a2, 16(sp)
	sd	a1, 8(sp)
	li	t0, 9
.Lpcrel_hi353:
	auipc	a1, %pcrel_hi(.L__unnamed_176)
	addi	a1, a1, %pcrel_lo(.Lpcrel_hi353)
.Lpcrel_hi354:
	auipc	a2, %pcrel_hi(.L__unnamed_177)
	addi	a3, a2, %pcrel_lo(.Lpcrel_hi354)
.Lpcrel_hi355:
	auipc	a2, %pcrel_hi(.L__unnamed_178)
	addi	a6, a2, %pcrel_lo(.Lpcrel_hi355)
.Lpcrel_hi356:
	auipc	a2, %pcrel_hi(.L__unnamed_179)
	addi	a7, a2, %pcrel_lo(.Lpcrel_hi356)
	li	a2, 4
	li	a4, 6
	sd	t0, 0(sp)
	call	_ZN4core3fmt9Formatter26debug_struct_field5_finish17h26157a8a7330df3eE@plt
	ld	ra, 136(sp)
	addi	sp, sp, 144
	ret
.Lfunc_end123:
	.size	_ZN42_$LT$$RF$T$u20$as$u20$core..fmt..Debug$GT$3fmt17hf22bea1bea5897e5E, .Lfunc_end123-_ZN42_$LT$$RF$T$u20$as$u20$core..fmt..Debug$GT$3fmt17hf22bea1bea5897e5E
	.cfi_endproc

	.section	".text._ZN42_$LT$$RF$T$u20$as$u20$core..fmt..Debug$GT$3fmt17hf2b25f435d47ff40E","ax",@progbits
	.p2align	1
	.type	_ZN42_$LT$$RF$T$u20$as$u20$core..fmt..Debug$GT$3fmt17hf2b25f435d47ff40E,@function
_ZN42_$LT$$RF$T$u20$as$u20$core..fmt..Debug$GT$3fmt17hf2b25f435d47ff40E:
	.cfi_startproc
	addi	sp, sp, -64
	.cfi_def_cfa_offset 64
	sd	ra, 56(sp)
	.cfi_offset ra, -8
	ld	a2, 0(a0)
	ld	a3, 328(a2)
	mv	a0, a1
	beqz	a3, .LBB124_2
.Lpcrel_hi357:
	auipc	a1, %pcrel_hi(.L__unnamed_42)
	addi	a1, a1, %pcrel_lo(.Lpcrel_hi357)
	sd	a1, 24(sp)
	li	a1, 1
	sd	a1, 32(sp)
	sd	zero, 8(sp)
.Lpcrel_hi358:
	auipc	a1, %pcrel_hi(.L__unnamed_15)
	addi	a1, a1, %pcrel_lo(.Lpcrel_hi358)
	sd	a1, 40(sp)
	sd	zero, 48(sp)
	addi	a1, sp, 8
	call	_ZN4core3fmt9Formatter9write_fmt17hc824f318ba189234E@plt
	ld	ra, 56(sp)
	addi	sp, sp, 64
	ret
.LBB124_2:
	sd	a2, 8(sp)
.Lpcrel_hi359:
	auipc	a1, %pcrel_hi(.L__unnamed_50)
	addi	a1, a1, %pcrel_lo(.Lpcrel_hi359)
.Lpcrel_hi360:
	auipc	a2, %pcrel_hi(.L__unnamed_39)
	addi	a3, a2, %pcrel_lo(.Lpcrel_hi360)
.Lpcrel_hi361:
	auipc	a2, %pcrel_hi(.L__unnamed_51)
	addi	a6, a2, %pcrel_lo(.Lpcrel_hi361)
	li	a2, 10
	li	a4, 5
	addi	a5, sp, 8
	call	_ZN4core3fmt9Formatter26debug_struct_field1_finish17h3c40263cb759e37bE@plt
	ld	ra, 56(sp)
	addi	sp, sp, 64
	ret
.Lfunc_end124:
	.size	_ZN42_$LT$$RF$T$u20$as$u20$core..fmt..Debug$GT$3fmt17hf2b25f435d47ff40E, .Lfunc_end124-_ZN42_$LT$$RF$T$u20$as$u20$core..fmt..Debug$GT$3fmt17hf2b25f435d47ff40E
	.cfi_endproc

	.section	".text._ZN42_$LT$$RF$T$u20$as$u20$core..fmt..Debug$GT$3fmt17hf51934f323e41b23E","ax",@progbits
	.p2align	1
	.type	_ZN42_$LT$$RF$T$u20$as$u20$core..fmt..Debug$GT$3fmt17hf51934f323e41b23E,@function
_ZN42_$LT$$RF$T$u20$as$u20$core..fmt..Debug$GT$3fmt17hf51934f323e41b23E:
	.cfi_startproc
	ld	a0, 0(a0)
	tail	_ZN55_$LT$std..time..Instant$u20$as$u20$core..fmt..Debug$GT$3fmt17he2a8ba4848836d99E@plt
.Lfunc_end125:
	.size	_ZN42_$LT$$RF$T$u20$as$u20$core..fmt..Debug$GT$3fmt17hf51934f323e41b23E, .Lfunc_end125-_ZN42_$LT$$RF$T$u20$as$u20$core..fmt..Debug$GT$3fmt17hf51934f323e41b23E
	.cfi_endproc

	.section	".text._ZN42_$LT$$RF$T$u20$as$u20$core..fmt..Debug$GT$3fmt17hf5aaaf2e4ffb917fE","ax",@progbits
	.p2align	1
	.type	_ZN42_$LT$$RF$T$u20$as$u20$core..fmt..Debug$GT$3fmt17hf5aaaf2e4ffb917fE,@function
_ZN42_$LT$$RF$T$u20$as$u20$core..fmt..Debug$GT$3fmt17hf5aaaf2e4ffb917fE:
	.cfi_startproc
	ld	a0, 0(a0)
	tail	_ZN74_$LT$mio..net..uds..datagram..UnixDatagram$u20$as$u20$core..fmt..Debug$GT$3fmt17h75ebf139a234f911E@plt
.Lfunc_end126:
	.size	_ZN42_$LT$$RF$T$u20$as$u20$core..fmt..Debug$GT$3fmt17hf5aaaf2e4ffb917fE, .Lfunc_end126-_ZN42_$LT$$RF$T$u20$as$u20$core..fmt..Debug$GT$3fmt17hf5aaaf2e4ffb917fE
	.cfi_endproc

	.section	".text._ZN42_$LT$$RF$T$u20$as$u20$core..fmt..Debug$GT$3fmt17hfcb53f9f37a5838dE","ax",@progbits
	.p2align	1
	.type	_ZN42_$LT$$RF$T$u20$as$u20$core..fmt..Debug$GT$3fmt17hfcb53f9f37a5838dE,@function
_ZN42_$LT$$RF$T$u20$as$u20$core..fmt..Debug$GT$3fmt17hfcb53f9f37a5838dE:
	.cfi_startproc
	addi	sp, sp, -64
	.cfi_def_cfa_offset 64
	sd	ra, 56(sp)
	sd	s0, 48(sp)
	sd	s1, 40(sp)
	sd	s2, 32(sp)
	sd	s3, 24(sp)
	.cfi_offset ra, -8
	.cfi_offset s0, -16
	.cfi_offset s1, -24
	.cfi_offset s2, -32
	.cfi_offset s3, -40
	ld	s1, 0(a0)
	ld	s0, 8(a0)
	mv	a0, sp
	call	_ZN4core3fmt9Formatter10debug_list17h5e46ac31e8c80249E@plt
	beqz	s0, .LBB127_3
	slli	s0, s0, 5
.Lpcrel_hi362:
	auipc	a0, %pcrel_hi(.L__unnamed_146)
	addi	s2, a0, %pcrel_lo(.Lpcrel_hi362)
.LBB127_2:
	addi	s3, s1, 32
	sd	s1, 16(sp)
	mv	a0, sp
	addi	a1, sp, 16
	mv	a2, s2
	call	_ZN4core3fmt8builders9DebugList5entry17hd64fa0b2676db736E@plt
	addi	s0, s0, -32
	mv	s1, s3
	bnez	s0, .LBB127_2
.LBB127_3:
	mv	a0, sp
	call	_ZN4core3fmt8builders9DebugList6finish17h99f6b388c88c0b5dE@plt
	ld	ra, 56(sp)
	ld	s0, 48(sp)
	ld	s1, 40(sp)
	ld	s2, 32(sp)
	ld	s3, 24(sp)
	addi	sp, sp, 64
	ret
.Lfunc_end127:
	.size	_ZN42_$LT$$RF$T$u20$as$u20$core..fmt..Debug$GT$3fmt17hfcb53f9f37a5838dE, .Lfunc_end127-_ZN42_$LT$$RF$T$u20$as$u20$core..fmt..Debug$GT$3fmt17hfcb53f9f37a5838dE
	.cfi_endproc

	.section	".text._ZN42_$LT$$RF$T$u20$as$u20$core..fmt..Debug$GT$3fmt17hfcffdcc34f7d0cc8E","ax",@progbits
	.p2align	1
	.type	_ZN42_$LT$$RF$T$u20$as$u20$core..fmt..Debug$GT$3fmt17hfcffdcc34f7d0cc8E,@function
_ZN42_$LT$$RF$T$u20$as$u20$core..fmt..Debug$GT$3fmt17hfcffdcc34f7d0cc8E:
	.cfi_startproc
	addi	sp, sp, -16
	.cfi_def_cfa_offset 16
	sd	ra, 8(sp)
	.cfi_offset ra, -8
	ld	a2, 0(a0)
	mv	a0, a1
	sd	a2, 0(sp)
.Lpcrel_hi363:
	auipc	a1, %pcrel_hi(.L__unnamed_82)
	addi	a1, a1, %pcrel_lo(.Lpcrel_hi363)
.Lpcrel_hi364:
	auipc	a2, %pcrel_hi(.L__unnamed_180)
	addi	a3, a2, %pcrel_lo(.Lpcrel_hi364)
.Lpcrel_hi365:
	auipc	a2, %pcrel_hi(.L__unnamed_181)
	addi	a6, a2, %pcrel_lo(.Lpcrel_hi365)
	li	a2, 9
	li	a4, 6
	mv	a5, sp
	call	_ZN4core3fmt9Formatter26debug_struct_field1_finish17h3c40263cb759e37bE@plt
	ld	ra, 8(sp)
	addi	sp, sp, 16
	ret
.Lfunc_end128:
	.size	_ZN42_$LT$$RF$T$u20$as$u20$core..fmt..Debug$GT$3fmt17hfcffdcc34f7d0cc8E, .Lfunc_end128-_ZN42_$LT$$RF$T$u20$as$u20$core..fmt..Debug$GT$3fmt17hfcffdcc34f7d0cc8E
	.cfi_endproc

	.section	".text._ZN44_$LT$$RF$T$u20$as$u20$core..fmt..Display$GT$3fmt17h124d4597438c904bE","ax",@progbits
	.p2align	1
	.type	_ZN44_$LT$$RF$T$u20$as$u20$core..fmt..Display$GT$3fmt17h124d4597438c904bE,@function
_ZN44_$LT$$RF$T$u20$as$u20$core..fmt..Display$GT$3fmt17h124d4597438c904bE:
	.cfi_startproc
	ld	a2, 0(a0)
	ld	a3, 8(a0)
	mv	a4, a1
	mv	a0, a2
	mv	a1, a3
	mv	a2, a4
	tail	_ZN42_$LT$str$u20$as$u20$core..fmt..Display$GT$3fmt17h6b14f3cffdb0c8c8E@plt
.Lfunc_end129:
	.size	_ZN44_$LT$$RF$T$u20$as$u20$core..fmt..Display$GT$3fmt17h124d4597438c904bE, .Lfunc_end129-_ZN44_$LT$$RF$T$u20$as$u20$core..fmt..Display$GT$3fmt17h124d4597438c904bE
	.cfi_endproc

	.section	".text._ZN44_$LT$$RF$T$u20$as$u20$core..fmt..Display$GT$3fmt17hf3beeb9d16538c88E","ax",@progbits
	.p2align	1
	.type	_ZN44_$LT$$RF$T$u20$as$u20$core..fmt..Display$GT$3fmt17hf3beeb9d16538c88E,@function
_ZN44_$LT$$RF$T$u20$as$u20$core..fmt..Display$GT$3fmt17hf3beeb9d16538c88E:
	.cfi_startproc
	ld	a0, 0(a0)
	tail	_ZN4core3fmt3num3imp52_$LT$impl$u20$core..fmt..Display$u20$for$u20$u64$GT$3fmt17hd8e5764dbbde4421E@plt
.Lfunc_end130:
	.size	_ZN44_$LT$$RF$T$u20$as$u20$core..fmt..Display$GT$3fmt17hf3beeb9d16538c88E, .Lfunc_end130-_ZN44_$LT$$RF$T$u20$as$u20$core..fmt..Display$GT$3fmt17hf3beeb9d16538c88E
	.cfi_endproc

	.section	".text._ZN45_$LT$$LP$$RP$$u20$as$u20$core..fmt..Debug$GT$3fmt17h5bf6732a8327b6e9E","ax",@progbits
	.p2align	1
	.type	_ZN45_$LT$$LP$$RP$$u20$as$u20$core..fmt..Debug$GT$3fmt17h5bf6732a8327b6e9E,@function
_ZN45_$LT$$LP$$RP$$u20$as$u20$core..fmt..Debug$GT$3fmt17h5bf6732a8327b6e9E:
	.cfi_startproc
.Lpcrel_hi366:
	auipc	a0, %pcrel_hi(.L__unnamed_68)
	addi	a3, a0, %pcrel_lo(.Lpcrel_hi366)
	li	a2, 2
	mv	a0, a1
	mv	a1, a3
	tail	_ZN4core3fmt9Formatter3pad17h8b5453fbd199fafcE@plt
.Lfunc_end131:
	.size	_ZN45_$LT$$LP$$RP$$u20$as$u20$core..fmt..Debug$GT$3fmt17h5bf6732a8327b6e9E, .Lfunc_end131-_ZN45_$LT$$LP$$RP$$u20$as$u20$core..fmt..Debug$GT$3fmt17h5bf6732a8327b6e9E
	.cfi_endproc

	.section	".text._ZN4core3fmt3num49_$LT$impl$u20$core..fmt..Debug$u20$for$u20$u8$GT$3fmt17hcb68fc88502aa288E","ax",@progbits
	.p2align	1
	.type	_ZN4core3fmt3num49_$LT$impl$u20$core..fmt..Debug$u20$for$u20$u8$GT$3fmt17hcb68fc88502aa288E,@function
_ZN4core3fmt3num49_$LT$impl$u20$core..fmt..Debug$u20$for$u20$u8$GT$3fmt17hcb68fc88502aa288E:
	.cfi_startproc
	addi	sp, sp, -32
	.cfi_def_cfa_offset 32
	sd	ra, 24(sp)
	sd	s0, 16(sp)
	sd	s1, 8(sp)
	.cfi_offset ra, -8
	.cfi_offset s0, -16
	.cfi_offset s1, -24
	mv	s0, a1
	mv	s1, a0
	mv	a0, a1
	call	_ZN4core3fmt9Formatter15debug_lower_hex17h997a8feb780e79d7E@plt
	beqz	a0, .LBB132_2
	mv	a0, s1
	mv	a1, s0
	ld	ra, 24(sp)
	ld	s0, 16(sp)
	ld	s1, 8(sp)
	addi	sp, sp, 32
	tail	_ZN4core3fmt3num52_$LT$impl$u20$core..fmt..LowerHex$u20$for$u20$u8$GT$3fmt17h7611a13e21553363E@plt
.LBB132_2:
	mv	a0, s0
	call	_ZN4core3fmt9Formatter15debug_upper_hex17he827cad4c6077043E@plt
	beqz	a0, .LBB132_4
	mv	a0, s1
	mv	a1, s0
	ld	ra, 24(sp)
	ld	s0, 16(sp)
	ld	s1, 8(sp)
	addi	sp, sp, 32
	tail	_ZN4core3fmt3num52_$LT$impl$u20$core..fmt..UpperHex$u20$for$u20$u8$GT$3fmt17hb20e693df8f53501E@plt
.LBB132_4:
	mv	a0, s1
	mv	a1, s0
	ld	ra, 24(sp)
	ld	s0, 16(sp)
	ld	s1, 8(sp)
	addi	sp, sp, 32
	tail	_ZN4core3fmt3num3imp51_$LT$impl$u20$core..fmt..Display$u20$for$u20$u8$GT$3fmt17hec95463cd04369b3E@plt
.Lfunc_end132:
	.size	_ZN4core3fmt3num49_$LT$impl$u20$core..fmt..Debug$u20$for$u20$u8$GT$3fmt17hcb68fc88502aa288E, .Lfunc_end132-_ZN4core3fmt3num49_$LT$impl$u20$core..fmt..Debug$u20$for$u20$u8$GT$3fmt17hcb68fc88502aa288E
	.cfi_endproc

	.section	".text._ZN4core3fmt3num50_$LT$impl$u20$core..fmt..Debug$u20$for$u20$u32$GT$3fmt17hb6945d832e9a2d56E","ax",@progbits
	.p2align	1
	.type	_ZN4core3fmt3num50_$LT$impl$u20$core..fmt..Debug$u20$for$u20$u32$GT$3fmt17hb6945d832e9a2d56E,@function
_ZN4core3fmt3num50_$LT$impl$u20$core..fmt..Debug$u20$for$u20$u32$GT$3fmt17hb6945d832e9a2d56E:
	.cfi_startproc
	addi	sp, sp, -32
	.cfi_def_cfa_offset 32
	sd	ra, 24(sp)
	sd	s0, 16(sp)
	sd	s1, 8(sp)
	.cfi_offset ra, -8
	.cfi_offset s0, -16
	.cfi_offset s1, -24
	mv	s0, a1
	mv	s1, a0
	mv	a0, a1
	call	_ZN4core3fmt9Formatter15debug_lower_hex17h997a8feb780e79d7E@plt
	beqz	a0, .LBB133_2
	mv	a0, s1
	mv	a1, s0
	ld	ra, 24(sp)
	ld	s0, 16(sp)
	ld	s1, 8(sp)
	addi	sp, sp, 32
	tail	_ZN4core3fmt3num53_$LT$impl$u20$core..fmt..LowerHex$u20$for$u20$u32$GT$3fmt17h99be82a1e6da60a0E@plt
.LBB133_2:
	mv	a0, s0
	call	_ZN4core3fmt9Formatter15debug_upper_hex17he827cad4c6077043E@plt
	beqz	a0, .LBB133_4
	mv	a0, s1
	mv	a1, s0
	ld	ra, 24(sp)
	ld	s0, 16(sp)
	ld	s1, 8(sp)
	addi	sp, sp, 32
	tail	_ZN4core3fmt3num53_$LT$impl$u20$core..fmt..UpperHex$u20$for$u20$u32$GT$3fmt17h77bc52937dd7ae37E@plt
.LBB133_4:
	mv	a0, s1
	mv	a1, s0
	ld	ra, 24(sp)
	ld	s0, 16(sp)
	ld	s1, 8(sp)
	addi	sp, sp, 32
	tail	_ZN4core3fmt3num3imp52_$LT$impl$u20$core..fmt..Display$u20$for$u20$u32$GT$3fmt17h12c72945a5692b7dE@plt
.Lfunc_end133:
	.size	_ZN4core3fmt3num50_$LT$impl$u20$core..fmt..Debug$u20$for$u20$u32$GT$3fmt17hb6945d832e9a2d56E, .Lfunc_end133-_ZN4core3fmt3num50_$LT$impl$u20$core..fmt..Debug$u20$for$u20$u32$GT$3fmt17hb6945d832e9a2d56E
	.cfi_endproc

	.section	".text._ZN4core3fmt3num50_$LT$impl$u20$core..fmt..Debug$u20$for$u20$u64$GT$3fmt17h3fb80b0d0046a942E","ax",@progbits
	.p2align	1
	.type	_ZN4core3fmt3num50_$LT$impl$u20$core..fmt..Debug$u20$for$u20$u64$GT$3fmt17h3fb80b0d0046a942E,@function
_ZN4core3fmt3num50_$LT$impl$u20$core..fmt..Debug$u20$for$u20$u64$GT$3fmt17h3fb80b0d0046a942E:
	.cfi_startproc
	addi	sp, sp, -32
	.cfi_def_cfa_offset 32
	sd	ra, 24(sp)
	sd	s0, 16(sp)
	sd	s1, 8(sp)
	.cfi_offset ra, -8
	.cfi_offset s0, -16
	.cfi_offset s1, -24
	mv	s0, a1
	mv	s1, a0
	mv	a0, a1
	call	_ZN4core3fmt9Formatter15debug_lower_hex17h997a8feb780e79d7E@plt
	beqz	a0, .LBB134_2
	mv	a0, s1
	mv	a1, s0
	ld	ra, 24(sp)
	ld	s0, 16(sp)
	ld	s1, 8(sp)
	addi	sp, sp, 32
	tail	_ZN4core3fmt3num53_$LT$impl$u20$core..fmt..LowerHex$u20$for$u20$u64$GT$3fmt17h007730732f7a1398E@plt
.LBB134_2:
	mv	a0, s0
	call	_ZN4core3fmt9Formatter15debug_upper_hex17he827cad4c6077043E@plt
	beqz	a0, .LBB134_4
	mv	a0, s1
	mv	a1, s0
	ld	ra, 24(sp)
	ld	s0, 16(sp)
	ld	s1, 8(sp)
	addi	sp, sp, 32
	tail	_ZN4core3fmt3num53_$LT$impl$u20$core..fmt..UpperHex$u20$for$u20$u64$GT$3fmt17h7bf9b8d1271d791dE@plt
.LBB134_4:
	mv	a0, s1
	mv	a1, s0
	ld	ra, 24(sp)
	ld	s0, 16(sp)
	ld	s1, 8(sp)
	addi	sp, sp, 32
	tail	_ZN4core3fmt3num3imp52_$LT$impl$u20$core..fmt..Display$u20$for$u20$u64$GT$3fmt17hd8e5764dbbde4421E@plt
.Lfunc_end134:
	.size	_ZN4core3fmt3num50_$LT$impl$u20$core..fmt..Debug$u20$for$u20$u64$GT$3fmt17h3fb80b0d0046a942E, .Lfunc_end134-_ZN4core3fmt3num50_$LT$impl$u20$core..fmt..Debug$u20$for$u20$u64$GT$3fmt17h3fb80b0d0046a942E
	.cfi_endproc

	.section	".text._ZN4core3fmt3num52_$LT$impl$u20$core..fmt..Debug$u20$for$u20$usize$GT$3fmt17hd447193c4019e64aE","ax",@progbits
	.p2align	1
	.type	_ZN4core3fmt3num52_$LT$impl$u20$core..fmt..Debug$u20$for$u20$usize$GT$3fmt17hd447193c4019e64aE,@function
_ZN4core3fmt3num52_$LT$impl$u20$core..fmt..Debug$u20$for$u20$usize$GT$3fmt17hd447193c4019e64aE:
	.cfi_startproc
	addi	sp, sp, -32
	.cfi_def_cfa_offset 32
	sd	ra, 24(sp)
	sd	s0, 16(sp)
	sd	s1, 8(sp)
	.cfi_offset ra, -8
	.cfi_offset s0, -16
	.cfi_offset s1, -24
	mv	s0, a1
	mv	s1, a0
	mv	a0, a1
	call	_ZN4core3fmt9Formatter15debug_lower_hex17h997a8feb780e79d7E@plt
	beqz	a0, .LBB135_2
	mv	a0, s1
	mv	a1, s0
	ld	ra, 24(sp)
	ld	s0, 16(sp)
	ld	s1, 8(sp)
	addi	sp, sp, 32
	tail	_ZN4core3fmt3num55_$LT$impl$u20$core..fmt..LowerHex$u20$for$u20$usize$GT$3fmt17h34550843252ab4afE@plt
.LBB135_2:
	mv	a0, s0
	call	_ZN4core3fmt9Formatter15debug_upper_hex17he827cad4c6077043E@plt
	beqz	a0, .LBB135_4
	mv	a0, s1
	mv	a1, s0
	ld	ra, 24(sp)
	ld	s0, 16(sp)
	ld	s1, 8(sp)
	addi	sp, sp, 32
	tail	_ZN4core3fmt3num55_$LT$impl$u20$core..fmt..UpperHex$u20$for$u20$usize$GT$3fmt17h39ab38a5f43ff881E@plt
.LBB135_4:
	mv	a0, s1
	mv	a1, s0
	ld	ra, 24(sp)
	ld	s0, 16(sp)
	ld	s1, 8(sp)
	addi	sp, sp, 32
	tail	_ZN4core3fmt3num3imp54_$LT$impl$u20$core..fmt..Display$u20$for$u20$usize$GT$3fmt17h64b4ac61c4d09051E@plt
.Lfunc_end135:
	.size	_ZN4core3fmt3num52_$LT$impl$u20$core..fmt..Debug$u20$for$u20$usize$GT$3fmt17hd447193c4019e64aE, .Lfunc_end135-_ZN4core3fmt3num52_$LT$impl$u20$core..fmt..Debug$u20$for$u20$usize$GT$3fmt17hd447193c4019e64aE
	.cfi_endproc

	.section	.text._ZN4core3fmt5Write10write_char17hc9626207204a9981E,"ax",@progbits
	.p2align	1
	.type	_ZN4core3fmt5Write10write_char17hc9626207204a9981E,@function
_ZN4core3fmt5Write10write_char17hc9626207204a9981E:
	.cfi_startproc
	addi	sp, sp, -16
	.cfi_def_cfa_offset 16
	sd	ra, 8(sp)
	.cfi_offset ra, -8
	sext.w	a2, a1
	li	a3, 128
	sw	zero, 4(sp)
	bgeu	a2, a3, .LBB136_2
	sb	a1, 4(sp)
	li	a2, 1
	j	.LBB136_7
.LBB136_2:
	srliw	a2, a1, 11
	bnez	a2, .LBB136_4
	srli	a2, a1, 6
	ori	a2, a2, 192
	sb	a2, 4(sp)
	andi	a1, a1, 63
	addi	a1, a1, 128
	sb	a1, 5(sp)
	li	a2, 2
	j	.LBB136_7
.LBB136_4:
	srliw	a2, a1, 16
	bnez	a2, .LBB136_6
	srli	a2, a1, 12
	ori	a2, a2, 224
	sb	a2, 4(sp)
	slli	a2, a1, 52
	srli	a2, a2, 58
	addi	a2, a2, 128
	sb	a2, 5(sp)
	andi	a1, a1, 63
	addi	a1, a1, 128
	sb	a1, 6(sp)
	li	a2, 3
	j	.LBB136_7
.LBB136_6:
	slli	a2, a1, 43
	srli	a2, a2, 61
	addi	a2, a2, 240
	sb	a2, 4(sp)
	slli	a2, a1, 46
	srli	a2, a2, 58
	addi	a2, a2, 128
	sb	a2, 5(sp)
	slli	a2, a1, 52
	srli	a2, a2, 58
	addi	a2, a2, 128
	sb	a2, 6(sp)
	andi	a1, a1, 63
	addi	a1, a1, 128
	sb	a1, 7(sp)
	li	a2, 4
.LBB136_7:
	addi	a1, sp, 4
	call	_ZN80_$LT$std..io..Write..write_fmt..Adapter$LT$T$GT$$u20$as$u20$core..fmt..Write$GT$9write_str17h222a9ba6ab1be634E
	ld	ra, 8(sp)
	addi	sp, sp, 16
	ret
.Lfunc_end136:
	.size	_ZN4core3fmt5Write10write_char17hc9626207204a9981E, .Lfunc_end136-_ZN4core3fmt5Write10write_char17hc9626207204a9981E
	.cfi_endproc

	.section	.text._ZN4core3fmt5Write9write_fmt17h70e21a0e00152e52E,"ax",@progbits
	.p2align	1
	.type	_ZN4core3fmt5Write9write_fmt17h70e21a0e00152e52E,@function
_ZN4core3fmt5Write9write_fmt17h70e21a0e00152e52E:
	.cfi_startproc
	addi	sp, sp, -64
	.cfi_def_cfa_offset 64
	sd	ra, 56(sp)
	.cfi_offset ra, -8
	ld	a2, 40(a1)
	ld	a3, 32(a1)
	sd	a0, 0(sp)
	sd	a2, 48(sp)
	sd	a3, 40(sp)
	ld	a0, 24(a1)
	ld	a2, 16(a1)
	ld	a3, 8(a1)
	ld	a1, 0(a1)
	sd	a0, 32(sp)
	sd	a2, 24(sp)
	sd	a3, 16(sp)
	sd	a1, 8(sp)
.Lpcrel_hi367:
	auipc	a0, %pcrel_hi(.L__unnamed_182)
	addi	a1, a0, %pcrel_lo(.Lpcrel_hi367)
	mv	a0, sp
	addi	a2, sp, 8
	call	_ZN4core3fmt5write17hb6def4bb8bd3cfcaE@plt
	ld	ra, 56(sp)
	addi	sp, sp, 64
	ret
.Lfunc_end137:
	.size	_ZN4core3fmt5Write9write_fmt17h70e21a0e00152e52E, .Lfunc_end137-_ZN4core3fmt5Write9write_fmt17h70e21a0e00152e52E
	.cfi_endproc

	.section	".text._ZN4core3ops8function6FnOnce40call_once$u7b$$u7b$vtable.shim$u7d$$u7d$17h7f6accf00473a9c1E","ax",@progbits
	.p2align	1
	.type	_ZN4core3ops8function6FnOnce40call_once$u7b$$u7b$vtable.shim$u7d$$u7d$17h7f6accf00473a9c1E,@function
_ZN4core3ops8function6FnOnce40call_once$u7b$$u7b$vtable.shim$u7d$$u7d$17h7f6accf00473a9c1E:
.Lfunc_begin24:
	.cfi_startproc
	.cfi_personality 155, DW.ref.rust_eh_personality
	.cfi_lsda 27, .Lexception24
	addi	sp, sp, -112
	.cfi_def_cfa_offset 112
	sd	ra, 104(sp)
	sd	s0, 96(sp)
	sd	s1, 88(sp)
	sd	s2, 80(sp)
	sd	s3, 72(sp)
	sd	s4, 64(sp)
	.cfi_offset ra, -8
	.cfi_offset s0, -16
	.cfi_offset s1, -24
	.cfi_offset s2, -32
	.cfi_offset s3, -40
	.cfi_offset s4, -48
	mv	s0, a0
	addi	s3, a0, 40
.Ltmp296:
	mv	a0, s3
	call	_ZN3std6thread6Thread5cname17he9f6f88759e67c87E@plt
.Ltmp297:
	beqz	a0, .LBB138_3
.Ltmp298:
	call	_ZN3std3sys4unix6thread6Thread8set_name17h8fb6865972f116daE@plt
.Ltmp299:
.LBB138_3:
	ld	a0, 32(s0)
.Ltmp301:
	call	_ZN3std2io5stdio18set_output_capture17h10fedcf8a670dcbfE@plt
.Ltmp302:
	beqz	a0, .LBB138_7
	li	a1, 1
	neg	a2, a1
	amoadd.d.rl	a2, a2, (a0)
	bne	a2, a1, .LBB138_7
	fence	r, rw
	call	_ZN5alloc4sync12Arc$LT$T$GT$9drop_slow17h8388128d72258348E
.LBB138_7:
	ld	a0, 24(s0)
	sd	a0, 24(sp)
	ld	a0, 16(s0)
	sd	a0, 16(sp)
	ld	a0, 8(s0)
	sd	a0, 8(sp)
	ld	a0, 0(s0)
	sd	a0, 0(sp)
.Ltmp306:
	addi	a0, sp, 32
	li	s1, 0
	call	_ZN3std3sys4unix6thread5guard7current17h411b54e2897a933bE@plt
.Ltmp307:
	ld	a1, 0(s3)
	li	s1, 1
.Ltmp308:
	addi	a0, sp, 32
	call	_ZN3std10sys_common11thread_info3set17h188513cb421a56d1E@plt
.Ltmp309:
	ld	a0, 24(sp)
	ld	a1, 16(sp)
	ld	a2, 8(sp)
	ld	a3, 0(sp)
	sd	a0, 56(sp)
	sd	a1, 48(sp)
	sd	a2, 40(sp)
	sd	a3, 32(sp)
.Ltmp313:
.Lpcrel_hi368:
	auipc	a0, %pcrel_hi(_ZN3std9panicking3try7do_call17hedce9263a2ff3ac9E)
	addi	a0, a0, %pcrel_lo(.Lpcrel_hi368)
.Lpcrel_hi369:
	auipc	a1, %pcrel_hi(_ZN3std9panicking3try8do_catch17h03c8084d83bdb4a7E)
	addi	a2, a1, %pcrel_lo(.Lpcrel_hi369)
	addi	a1, sp, 32
	call	__rust_try
.Ltmp314:
	ld	s1, 48(s0)
	sext.w	a0, a0
	ld	a1, 32(sp)
	ld	a2, 24(s1)
	ld	s3, 40(sp)
	seqz	a0, a0
	addi	a0, a0, -1
	and	s4, a0, a1
	beqz	a2, .LBB138_15
	ld	a0, 32(s1)
	beqz	a0, .LBB138_15
	ld	a1, 40(s1)
	ld	a1, 0(a1)
.Ltmp316:
	jalr	a1
.Ltmp317:
	ld	a0, 40(s1)
	ld	a1, 8(a0)
	beqz	a1, .LBB138_15
	ld	a2, 16(a0)
	ld	a0, 32(s1)
	call	__rust_dealloc@plt
.LBB138_15:
	li	a1, 1
	sd	a1, 24(s1)
	sd	s4, 32(s1)
	sd	s3, 40(s1)
	ld	a0, 48(s0)
	neg	a2, a1
	amoadd.d.rl	a2, a2, (a0)
	bne	a2, a1, .LBB138_17
	fence	r, rw
	call	_ZN5alloc4sync12Arc$LT$T$GT$9drop_slow17h6ceedcf17224db3cE
.LBB138_17:
	ld	ra, 104(sp)
	ld	s0, 96(sp)
	ld	s1, 88(sp)
	ld	s2, 80(sp)
	ld	s3, 72(sp)
	ld	s4, 64(sp)
	addi	sp, sp, 112
	ret
.LBB138_18:
.Ltmp318:
	ld	a2, 40(s1)
	ld	a3, 32(s1)
	ld	a1, 8(a2)
	ld	a2, 16(a2)
	mv	s2, a0
	mv	a0, a3
	call	_ZN5alloc5alloc8box_free17hab3460fb52d5dd94E
	li	a0, 1
	sd	a0, 24(s1)
	sd	s4, 32(s1)
	sd	s3, 40(s1)
	j	.LBB138_26
.LBB138_19:
.Ltmp315:
	mv	s2, a0
	j	.LBB138_26
.LBB138_20:
.Ltmp303:
	ld	a1, 0(s3)
	mv	s2, a0
	mv	a0, a1
	call	_ZN4core3ptr40drop_in_place$LT$std..thread..Thread$GT$17hafdaeae0ad5d8e72E
	j	.LBB138_22
.LBB138_21:
.Ltmp300:
	ld	a1, 40(s0)
	mv	s2, a0
	mv	a0, a1
	call	_ZN4core3ptr40drop_in_place$LT$std..thread..Thread$GT$17hafdaeae0ad5d8e72E
	ld	a0, 32(s0)
	call	_ZN4core3ptr129drop_in_place$LT$core..option..Option$LT$alloc..sync..Arc$LT$std..sync..mutex..Mutex$LT$alloc..vec..Vec$LT$u8$GT$$GT$$GT$$GT$$GT$17h60910b9160dc65d4E
.LBB138_22:
.Ltmp304:
	mv	a0, s0
	call	_ZN4core3ptr164drop_in_place$LT$std..thread..Builder..spawn_unchecked_..MaybeDangling$LT$tokio..runtime..blocking..pool..Spawner..spawn_thread..$u7b$$u7b$closure$u7d$$u7d$$GT$$GT$17h99895cd75d3e584eE
.Ltmp305:
	j	.LBB138_26
.LBB138_23:
.Ltmp310:
	mv	s2, a0
.Ltmp311:
	mv	a0, sp
	call	_ZN4core3ptr103drop_in_place$LT$tokio..runtime..blocking..pool..Spawner..spawn_thread..$u7b$$u7b$closure$u7d$$u7d$$GT$17h5466f821cc11e95aE
.Ltmp312:
	bnez	s1, .LBB138_26
	ld	a0, 0(s3)
	call	_ZN4core3ptr40drop_in_place$LT$std..thread..Thread$GT$17hafdaeae0ad5d8e72E
.LBB138_26:
	ld	a0, 48(s0)
.Ltmp319:
	call	_ZN4core3ptr80drop_in_place$LT$alloc..sync..Arc$LT$std..thread..Packet$LT$$LP$$RP$$GT$$GT$$GT$17h01d771624af46b67E
.Ltmp320:
	mv	a0, s2
	call	_Unwind_Resume@plt
	unimp	
.LBB138_28:
.Ltmp321:
	call	_ZN4core9panicking19panic_cannot_unwind17h7b6652c0f2f24b81E@plt
	unimp	
.Lfunc_end138:
	.size	_ZN4core3ops8function6FnOnce40call_once$u7b$$u7b$vtable.shim$u7d$$u7d$17h7f6accf00473a9c1E, .Lfunc_end138-_ZN4core3ops8function6FnOnce40call_once$u7b$$u7b$vtable.shim$u7d$$u7d$17h7f6accf00473a9c1E
	.cfi_endproc
	.section	".gcc_except_table._ZN4core3ops8function6FnOnce40call_once$u7b$$u7b$vtable.shim$u7d$$u7d$17h7f6accf00473a9c1E","a",@progbits
	.p2align	2, 0x0
GCC_except_table138:
.Lexception24:
	.byte	255
	.byte	255
	.byte	3
	.uleb128 .Lcst_end24-.Lcst_begin24
.Lcst_begin24:
	.word	.Ltmp296-.Lfunc_begin24
	.word	.Ltmp299-.Ltmp296
	.word	.Ltmp300-.Lfunc_begin24
	.byte	0
	.word	.Ltmp301-.Lfunc_begin24
	.word	.Ltmp302-.Ltmp301
	.word	.Ltmp303-.Lfunc_begin24
	.byte	0
	.word	.Ltmp306-.Lfunc_begin24
	.word	.Ltmp309-.Ltmp306
	.word	.Ltmp310-.Lfunc_begin24
	.byte	0
	.word	.Ltmp313-.Lfunc_begin24
	.word	.Ltmp314-.Ltmp313
	.word	.Ltmp315-.Lfunc_begin24
	.byte	0
	.word	.Ltmp316-.Lfunc_begin24
	.word	.Ltmp317-.Ltmp316
	.word	.Ltmp318-.Lfunc_begin24
	.byte	0
	.word	.Ltmp317-.Lfunc_begin24
	.word	.Ltmp304-.Ltmp317
	.word	0
	.byte	0
	.word	.Ltmp304-.Lfunc_begin24
	.word	.Ltmp320-.Ltmp304
	.word	.Ltmp321-.Lfunc_begin24
	.byte	0
	.word	.Ltmp320-.Lfunc_begin24
	.word	.Lfunc_end138-.Ltmp320
	.word	0
	.byte	0
.Lcst_end24:
	.p2align	2, 0x0

	.section	".text._ZN4core3ops8function6FnOnce40call_once$u7b$$u7b$vtable.shim$u7d$$u7d$17he2e3391eb2de7744E","ax",@progbits
	.p2align	1
	.type	_ZN4core3ops8function6FnOnce40call_once$u7b$$u7b$vtable.shim$u7d$$u7d$17he2e3391eb2de7744E,@function
_ZN4core3ops8function6FnOnce40call_once$u7b$$u7b$vtable.shim$u7d$$u7d$17he2e3391eb2de7744E:
	.cfi_startproc
	addi	sp, sp, -32
	.cfi_def_cfa_offset 32
	sd	ra, 24(sp)
	sd	s0, 16(sp)
	sd	s1, 8(sp)
	sd	s2, 0(sp)
	.cfi_offset ra, -8
	.cfi_offset s0, -16
	.cfi_offset s1, -24
	.cfi_offset s2, -32
	mv	s0, a0
	li	a0, 20
	li	a1, 1
	li	s2, 20
	call	__rust_alloc@plt
	beqz	a0, .LBB139_2
	mv	s1, a0
.Lpcrel_hi370:
	auipc	a0, %pcrel_hi(.L__unnamed_183)
	addi	a1, a0, %pcrel_lo(.Lpcrel_hi370)
	li	a2, 20
	mv	a0, s1
	call	memcpy@plt
	sd	s2, 0(s0)
	sd	s1, 8(s0)
	sd	s2, 16(s0)
	ld	ra, 24(sp)
	ld	s0, 16(sp)
	ld	s1, 8(sp)
	ld	s2, 0(sp)
	addi	sp, sp, 32
	ret
.LBB139_2:
	li	a0, 20
	li	a1, 1
	call	_ZN5alloc5alloc18handle_alloc_error17h8412bfc71c845112E@plt
	unimp	
.Lfunc_end139:
	.size	_ZN4core3ops8function6FnOnce40call_once$u7b$$u7b$vtable.shim$u7d$$u7d$17he2e3391eb2de7744E, .Lfunc_end139-_ZN4core3ops8function6FnOnce40call_once$u7b$$u7b$vtable.shim$u7d$$u7d$17he2e3391eb2de7744E
	.cfi_endproc

	.section	".text._ZN4core3ptr100drop_in_place$LT$$RF$core..ptr..non_null..NonNull$LT$tokio..time..driver..entry..TimerShared$GT$$GT$17h8634e17ba8a3ae0aE","ax",@progbits
	.p2align	1
	.type	_ZN4core3ptr100drop_in_place$LT$$RF$core..ptr..non_null..NonNull$LT$tokio..time..driver..entry..TimerShared$GT$$GT$17h8634e17ba8a3ae0aE,@function
_ZN4core3ptr100drop_in_place$LT$$RF$core..ptr..non_null..NonNull$LT$tokio..time..driver..entry..TimerShared$GT$$GT$17h8634e17ba8a3ae0aE:
	.cfi_startproc
	ret
.Lfunc_end140:
	.size	_ZN4core3ptr100drop_in_place$LT$$RF$core..ptr..non_null..NonNull$LT$tokio..time..driver..entry..TimerShared$GT$$GT$17h8634e17ba8a3ae0aE, .Lfunc_end140-_ZN4core3ptr100drop_in_place$LT$$RF$core..ptr..non_null..NonNull$LT$tokio..time..driver..entry..TimerShared$GT$$GT$17h8634e17ba8a3ae0aE
	.cfi_endproc

	.section	".text._ZN4core3ptr100drop_in_place$LT$alloc..sync..Arc$LT$tokio..runtime..scheduler..multi_thread..worker..Shared$GT$$GT$17h79ea2955dfc26691E","ax",@progbits
	.p2align	1
	.type	_ZN4core3ptr100drop_in_place$LT$alloc..sync..Arc$LT$tokio..runtime..scheduler..multi_thread..worker..Shared$GT$$GT$17h79ea2955dfc26691E,@function
_ZN4core3ptr100drop_in_place$LT$alloc..sync..Arc$LT$tokio..runtime..scheduler..multi_thread..worker..Shared$GT$$GT$17h79ea2955dfc26691E:
	.cfi_startproc
	li	a1, 1
	neg	a2, a1
	amoadd.d.rl	a2, a2, (a0)
	bne	a2, a1, .LBB141_2
	fence	r, rw
	tail	_ZN5alloc4sync12Arc$LT$T$GT$9drop_slow17hb344c95be8daa5bfE
.LBB141_2:
	ret
.Lfunc_end141:
	.size	_ZN4core3ptr100drop_in_place$LT$alloc..sync..Arc$LT$tokio..runtime..scheduler..multi_thread..worker..Shared$GT$$GT$17h79ea2955dfc26691E, .Lfunc_end141-_ZN4core3ptr100drop_in_place$LT$alloc..sync..Arc$LT$tokio..runtime..scheduler..multi_thread..worker..Shared$GT$$GT$17h79ea2955dfc26691E
	.cfi_endproc

	.section	".text._ZN4core3ptr100drop_in_place$LT$alloc..sync..Arc$LT$tokio..runtime..scheduler..multi_thread..worker..Worker$GT$$GT$17hb3541a7b14feb486E","ax",@progbits
	.p2align	1
	.type	_ZN4core3ptr100drop_in_place$LT$alloc..sync..Arc$LT$tokio..runtime..scheduler..multi_thread..worker..Worker$GT$$GT$17hb3541a7b14feb486E,@function
_ZN4core3ptr100drop_in_place$LT$alloc..sync..Arc$LT$tokio..runtime..scheduler..multi_thread..worker..Worker$GT$$GT$17hb3541a7b14feb486E:
	.cfi_startproc
	li	a1, 1
	neg	a2, a1
	amoadd.d.rl	a2, a2, (a0)
	bne	a2, a1, .LBB142_2
	fence	r, rw
	tail	_ZN5alloc4sync12Arc$LT$T$GT$9drop_slow17h7f6dbd340129a54cE
.LBB142_2:
	ret
.Lfunc_end142:
	.size	_ZN4core3ptr100drop_in_place$LT$alloc..sync..Arc$LT$tokio..runtime..scheduler..multi_thread..worker..Worker$GT$$GT$17hb3541a7b14feb486E, .Lfunc_end142-_ZN4core3ptr100drop_in_place$LT$alloc..sync..Arc$LT$tokio..runtime..scheduler..multi_thread..worker..Worker$GT$$GT$17hb3541a7b14feb486E
	.cfi_endproc

	.section	".text._ZN4core3ptr100drop_in_place$LT$tokio..loom..std..mutex..Mutex$LT$tokio..runtime..io..scheduled_io..Waiters$GT$$GT$17h77cae891fbffbaecE","ax",@progbits
	.p2align	1
	.type	_ZN4core3ptr100drop_in_place$LT$tokio..loom..std..mutex..Mutex$LT$tokio..runtime..io..scheduled_io..Waiters$GT$$GT$17h77cae891fbffbaecE,@function
_ZN4core3ptr100drop_in_place$LT$tokio..loom..std..mutex..Mutex$LT$tokio..runtime..io..scheduled_io..Waiters$GT$$GT$17h77cae891fbffbaecE:
.Lfunc_begin25:
	.cfi_startproc
	.cfi_personality 155, DW.ref.rust_eh_personality
	.cfi_lsda 27, .Lexception25
	addi	sp, sp, -32
	.cfi_def_cfa_offset 32
	sd	ra, 24(sp)
	sd	s0, 16(sp)
	sd	s1, 8(sp)
	.cfi_offset ra, -8
	.cfi_offset s0, -16
	.cfi_offset s1, -24
	mv	s0, a0
	ld	a1, 32(a0)
	beqz	a1, .LBB143_2
	ld	a0, 24(s0)
	ld	a1, 24(a1)
.Ltmp322:
	jalr	a1
.Ltmp323:
.LBB143_2:
	ld	a1, 48(s0)
	beqz	a1, .LBB143_4
	ld	a0, 40(s0)
	ld	a5, 24(a1)
	ld	ra, 24(sp)
	ld	s0, 16(sp)
	ld	s1, 8(sp)
	addi	sp, sp, 32
	jr	a5
.LBB143_4:
	ld	ra, 24(sp)
	ld	s0, 16(sp)
	ld	s1, 8(sp)
	addi	sp, sp, 32
	ret
.LBB143_5:
.Ltmp324:
	mv	s1, a0
	addi	a0, s0, 40
.Ltmp325:
	call	_ZN4core3ptr58drop_in_place$LT$tokio..time..driver..entry..StateCell$GT$17h76db7540a0a2abbeE
.Ltmp326:
	mv	a0, s1
	call	_Unwind_Resume@plt
	unimp	
.LBB143_7:
.Ltmp327:
	call	_ZN4core9panicking19panic_cannot_unwind17h7b6652c0f2f24b81E@plt
	unimp	
.Lfunc_end143:
	.size	_ZN4core3ptr100drop_in_place$LT$tokio..loom..std..mutex..Mutex$LT$tokio..runtime..io..scheduled_io..Waiters$GT$$GT$17h77cae891fbffbaecE, .Lfunc_end143-_ZN4core3ptr100drop_in_place$LT$tokio..loom..std..mutex..Mutex$LT$tokio..runtime..io..scheduled_io..Waiters$GT$$GT$17h77cae891fbffbaecE
	.cfi_endproc
	.section	".gcc_except_table._ZN4core3ptr100drop_in_place$LT$tokio..loom..std..mutex..Mutex$LT$tokio..runtime..io..scheduled_io..Waiters$GT$$GT$17h77cae891fbffbaecE","a",@progbits
	.p2align	2, 0x0
GCC_except_table143:
.Lexception25:
	.byte	255
	.byte	255
	.byte	3
	.uleb128 .Lcst_end25-.Lcst_begin25
.Lcst_begin25:
	.word	.Ltmp322-.Lfunc_begin25
	.word	.Ltmp323-.Ltmp322
	.word	.Ltmp324-.Lfunc_begin25
	.byte	0
	.word	.Ltmp323-.Lfunc_begin25
	.word	.Ltmp325-.Ltmp323
	.word	0
	.byte	0
	.word	.Ltmp325-.Lfunc_begin25
	.word	.Ltmp326-.Ltmp325
	.word	.Ltmp327-.Lfunc_begin25
	.byte	0
	.word	.Ltmp326-.Lfunc_begin25
	.word	.Lfunc_end143-.Ltmp326
	.word	0
	.byte	0
.Lcst_end25:
	.p2align	2, 0x0

	.section	".text._ZN4core3ptr101drop_in_place$LT$core..pin..Pin$LT$alloc..boxed..Box$LT$tokio..time..driver..sleep..Sleep$GT$$GT$$GT$17h8f906d4aa63d2ce0E","ax",@progbits
	.p2align	1
	.type	_ZN4core3ptr101drop_in_place$LT$core..pin..Pin$LT$alloc..boxed..Box$LT$tokio..time..driver..sleep..Sleep$GT$$GT$$GT$17h8f906d4aa63d2ce0E,@function
_ZN4core3ptr101drop_in_place$LT$core..pin..Pin$LT$alloc..boxed..Box$LT$tokio..time..driver..sleep..Sleep$GT$$GT$$GT$17h8f906d4aa63d2ce0E:
.Lfunc_begin26:
	.cfi_startproc
	.cfi_personality 155, DW.ref.rust_eh_personality
	.cfi_lsda 27, .Lexception26
	addi	sp, sp, -32
	.cfi_def_cfa_offset 32
	sd	ra, 24(sp)
	sd	s0, 16(sp)
	sd	s1, 8(sp)
	sd	s2, 0(sp)
	.cfi_offset ra, -8
	.cfi_offset s0, -16
	.cfi_offset s1, -24
	.cfi_offset s2, -32
	mv	s0, a0
	ld	s1, 0(a0)
.Ltmp328:
	mv	a0, s1
	call	_ZN80_$LT$tokio..time..driver..entry..TimerEntry$u20$as$u20$core..ops..drop..Drop$GT$4drop17h8260bcfb4ce20cb2E@plt
.Ltmp329:
	ld	a0, 224(s1)
	li	a1, 1
	neg	a2, a1
	amoadd.d.rl	a2, a2, (a0)
	bne	a2, a1, .LBB144_3
	fence	r, rw
.Ltmp333:
	call	_ZN5alloc4sync12Arc$LT$T$GT$9drop_slow17hc6430f5f63fe2ce3E
.Ltmp334:
.LBB144_3:
	ld	a1, 72(s1)
	beqz	a1, .LBB144_5
	ld	a0, 64(s1)
	ld	a1, 24(a1)
.Ltmp339:
	jalr	a1
.Ltmp340:
.LBB144_5:
	ld	a0, 0(s0)
	li	a1, 320
	li	a2, 64
	ld	ra, 24(sp)
	ld	s0, 16(sp)
	ld	s1, 8(sp)
	ld	s2, 0(sp)
	addi	sp, sp, 32
	tail	__rust_dealloc@plt
.LBB144_6:
.Ltmp335:
	mv	s2, a0
	j	.LBB144_9
.LBB144_7:
.Ltmp341:
	mv	s2, a0
	j	.LBB144_10
.LBB144_8:
.Ltmp330:
	mv	s2, a0
	addi	a0, s1, 208
.Ltmp331:
	call	_ZN4core3ptr56drop_in_place$LT$tokio..time..driver..handle..Handle$GT$17he6baced8219f30eaE
.Ltmp332:
.LBB144_9:
.Ltmp336:
	mv	a0, s1
	call	_ZN4core3ptr90drop_in_place$LT$core..cell..UnsafeCell$LT$tokio..time..driver..entry..TimerShared$GT$$GT$17h1e7e7d6eb158d86eE
.Ltmp337:
.LBB144_10:
	ld	a0, 0(s0)
	call	_ZN5alloc5alloc8box_free17hff58658d653d52c5E
	mv	a0, s2
	call	_Unwind_Resume@plt
	unimp	
.LBB144_11:
.Ltmp338:
	call	_ZN4core9panicking19panic_cannot_unwind17h7b6652c0f2f24b81E@plt
	unimp	
.Lfunc_end144:
	.size	_ZN4core3ptr101drop_in_place$LT$core..pin..Pin$LT$alloc..boxed..Box$LT$tokio..time..driver..sleep..Sleep$GT$$GT$$GT$17h8f906d4aa63d2ce0E, .Lfunc_end144-_ZN4core3ptr101drop_in_place$LT$core..pin..Pin$LT$alloc..boxed..Box$LT$tokio..time..driver..sleep..Sleep$GT$$GT$$GT$17h8f906d4aa63d2ce0E
	.cfi_endproc
	.section	".gcc_except_table._ZN4core3ptr101drop_in_place$LT$core..pin..Pin$LT$alloc..boxed..Box$LT$tokio..time..driver..sleep..Sleep$GT$$GT$$GT$17h8f906d4aa63d2ce0E","a",@progbits
	.p2align	2, 0x0
GCC_except_table144:
.Lexception26:
	.byte	255
	.byte	255
	.byte	3
	.uleb128 .Lcst_end26-.Lcst_begin26
.Lcst_begin26:
	.word	.Ltmp328-.Lfunc_begin26
	.word	.Ltmp329-.Ltmp328
	.word	.Ltmp330-.Lfunc_begin26
	.byte	0
	.word	.Ltmp333-.Lfunc_begin26
	.word	.Ltmp334-.Ltmp333
	.word	.Ltmp335-.Lfunc_begin26
	.byte	0
	.word	.Ltmp339-.Lfunc_begin26
	.word	.Ltmp340-.Ltmp339
	.word	.Ltmp341-.Lfunc_begin26
	.byte	0
	.word	.Ltmp331-.Lfunc_begin26
	.word	.Ltmp337-.Ltmp331
	.word	.Ltmp338-.Lfunc_begin26
	.byte	0
	.word	.Ltmp337-.Lfunc_begin26
	.word	.Lfunc_end144-.Ltmp337
	.word	0
	.byte	0
.Lcst_end26:
	.p2align	2, 0x0

	.section	".text._ZN4core3ptr101drop_in_place$LT$tokio..io..poll_evented..PollEvented$LT$mio..net..tcp..listener..TcpListener$GT$$GT$17h1de277ef6f8ad817E","ax",@progbits
	.p2align	1
	.type	_ZN4core3ptr101drop_in_place$LT$tokio..io..poll_evented..PollEvented$LT$mio..net..tcp..listener..TcpListener$GT$$GT$17h1de277ef6f8ad817E,@function
_ZN4core3ptr101drop_in_place$LT$tokio..io..poll_evented..PollEvented$LT$mio..net..tcp..listener..TcpListener$GT$$GT$17h1de277ef6f8ad817E:
.Lfunc_begin27:
	.cfi_startproc
	.cfi_personality 155, DW.ref.rust_eh_personality
	.cfi_lsda 27, .Lexception27
	addi	sp, sp, -112
	.cfi_def_cfa_offset 112
	sd	ra, 104(sp)
	sd	s0, 96(sp)
	sd	s1, 88(sp)
	sd	s2, 80(sp)
	sd	s3, 72(sp)
	sd	s4, 64(sp)
	.cfi_offset ra, -8
	.cfi_offset s0, -16
	.cfi_offset s1, -24
	.cfi_offset s2, -32
	.cfi_offset s3, -40
	.cfi_offset s4, -48
	mv	s0, a0
	lw	a0, 16(a0)
	li	a1, -1
	sw	a1, 16(s0)
	beq	a0, a1, .LBB145_12
.Lpcrel_hi371:
	auipc	a1, %got_pcrel_hi(_ZN3log20MAX_LOG_LEVEL_FILTER17ha50fa5c2a42f10feE)
	ld	a1, %pcrel_lo(.Lpcrel_hi371)(a1)
	sw	a0, 12(sp)
	ld	s1, 8(s0)
	ld	a0, 0(a1)
	li	a1, 5
	addi	s3, s0, 16
	bltu	a0, a1, .LBB145_3
.Lpcrel_hi372:
	auipc	a0, %pcrel_hi(.L__unnamed_184)
	addi	a0, a0, %pcrel_lo(.Lpcrel_hi372)
	sd	a0, 32(sp)
	li	a0, 1
	sd	a0, 40(sp)
	sd	zero, 16(sp)
.Lpcrel_hi373:
	auipc	a0, %pcrel_hi(.L__unnamed_15)
	addi	a0, a0, %pcrel_lo(.Lpcrel_hi373)
	sd	a0, 48(sp)
	sd	zero, 56(sp)
.Ltmp342:
.Lpcrel_hi374:
	auipc	a0, %pcrel_hi(.L__unnamed_185)
	addi	a2, a0, %pcrel_lo(.Lpcrel_hi374)
	addi	a0, sp, 16
	li	a1, 5
	li	a3, 0
	call	_ZN3log17__private_api_log17h12dfc1fab8fe9ef8E@plt
.Ltmp343:
.LBB145_3:
	addi	a1, s1, 192
.Ltmp344:
	addi	a0, sp, 12
	call	_ZN83_$LT$mio..net..tcp..listener..TcpListener$u20$as$u20$mio..event..source..Source$GT$10deregister17h7d4ebc2f2c5ef504E@plt
.Ltmp345:
	mv	s1, a0
	seqz	a0, a0
	andi	a1, s1, 3
	addi	a1, a1, -1
	snez	a1, a1
	or	a0, a0, a1
	bnez	a0, .LBB145_9
	ld	a1, 7(s1)
	ld	a0, -1(s1)
	ld	a1, 0(a1)
	addi	s4, s1, -1
.Ltmp347:
	jalr	a1
.Ltmp348:
	ld	a0, 7(s1)
	ld	a1, 8(a0)
	beqz	a1, .LBB145_8
	ld	a2, 16(a0)
	ld	a0, 0(s4)
	call	__rust_dealloc@plt
.LBB145_8:
	li	a1, 24
	li	a2, 8
	mv	a0, s4
	call	__rust_dealloc@plt
.LBB145_9:
	lw	a0, 12(sp)
.Ltmp353:
	call	close@plt
.Ltmp354:
	lw	a0, 0(s3)
	li	a1, -1
	beq	a0, a1, .LBB145_12
.Ltmp358:
	call	close@plt
.Ltmp359:
.LBB145_12:
.Ltmp364:
	mv	a0, s0
	call	_ZN88_$LT$tokio..runtime..io..registration..Registration$u20$as$u20$core..ops..drop..Drop$GT$4drop17h97164d79f48a56ddE@plt
.Ltmp365:
	ld	a0, 8(s0)
	li	a1, 1
	neg	a2, a1
	amoadd.d.rl	a2, a2, (a0)
	bne	a2, a1, .LBB145_15
	fence	r, rw
.Ltmp369:
	call	_ZN5alloc4sync12Arc$LT$T$GT$9drop_slow17hdce2af5fdf43e1c8E
.Ltmp370:
.LBB145_15:
	ld	a0, 0(s0)
	call	_ZN4core3ptr96drop_in_place$LT$tokio..util..slab..Ref$LT$tokio..runtime..io..scheduled_io..ScheduledIo$GT$$GT$17h46905a248dbb292cE
	ld	ra, 104(sp)
	ld	s0, 96(sp)
	ld	s1, 88(sp)
	ld	s2, 80(sp)
	ld	s3, 72(sp)
	ld	s4, 64(sp)
	addi	sp, sp, 112
	ret
.LBB145_16:
.Ltmp349:
	ld	a2, 7(s1)
	ld	a3, -1(s1)
	ld	a1, 8(a2)
	ld	a2, 16(a2)
	mv	s2, a0
	mv	a0, a3
	call	_ZN5alloc5alloc8box_free17hab3460fb52d5dd94E
	mv	a0, s4
	call	_ZN5alloc5alloc8box_free17h07113bd725719d0aE
	j	.LBB145_21
.LBB145_17:
.Ltmp360:
	mv	s2, a0
	j	.LBB145_23
.LBB145_18:
.Ltmp371:
	mv	s2, a0
	j	.LBB145_26
.LBB145_19:
.Ltmp355:
	mv	s2, a0
	j	.LBB145_22
.LBB145_20:
.Ltmp346:
	mv	s2, a0
.LBB145_21:
	lw	a0, 12(sp)
.Ltmp350:
	call	_ZN4core3ptr38drop_in_place$LT$mio..waker..Waker$GT$17hc2b62f633f28b0c1E
.Ltmp351:
.LBB145_22:
.Ltmp356:
	mv	a0, s3
	call	_ZN4core3ptr73drop_in_place$LT$core..option..Option$LT$mio..net..udp..UdpSocket$GT$$GT$17h3c2df9b82f2681d7E
.Ltmp357:
.LBB145_23:
.Ltmp361:
	mv	a0, s0
	call	_ZN4core3ptr67drop_in_place$LT$tokio..runtime..io..registration..Registration$GT$17h541dbca9c631d7acE
.Ltmp362:
	j	.LBB145_27
.LBB145_24:
.Ltmp352:
	call	_ZN4core9panicking19panic_cannot_unwind17h7b6652c0f2f24b81E@plt
	unimp	
.LBB145_25:
.Ltmp366:
	mv	s2, a0
	addi	a0, s0, 8
.Ltmp367:
	call	_ZN4core3ptr47drop_in_place$LT$tokio..runtime..io..Handle$GT$17ha751a8b212706c8aE
.Ltmp368:
.LBB145_26:
	ld	a0, 0(s0)
.Ltmp372:
	call	_ZN4core3ptr96drop_in_place$LT$tokio..util..slab..Ref$LT$tokio..runtime..io..scheduled_io..ScheduledIo$GT$$GT$17h46905a248dbb292cE
.Ltmp373:
.LBB145_27:
	mv	a0, s2
	call	_Unwind_Resume@plt
	unimp	
.LBB145_28:
.Ltmp374:
	call	_ZN4core9panicking19panic_cannot_unwind17h7b6652c0f2f24b81E@plt
	unimp	
.LBB145_29:
.Ltmp363:
	call	_ZN4core9panicking19panic_cannot_unwind17h7b6652c0f2f24b81E@plt
	unimp	
.Lfunc_end145:
	.size	_ZN4core3ptr101drop_in_place$LT$tokio..io..poll_evented..PollEvented$LT$mio..net..tcp..listener..TcpListener$GT$$GT$17h1de277ef6f8ad817E, .Lfunc_end145-_ZN4core3ptr101drop_in_place$LT$tokio..io..poll_evented..PollEvented$LT$mio..net..tcp..listener..TcpListener$GT$$GT$17h1de277ef6f8ad817E
	.cfi_endproc
	.section	".gcc_except_table._ZN4core3ptr101drop_in_place$LT$tokio..io..poll_evented..PollEvented$LT$mio..net..tcp..listener..TcpListener$GT$$GT$17h1de277ef6f8ad817E","a",@progbits
	.p2align	2, 0x0
GCC_except_table145:
.Lexception27:
	.byte	255
	.byte	255
	.byte	3
	.uleb128 .Lcst_end27-.Lcst_begin27
.Lcst_begin27:
	.word	.Ltmp342-.Lfunc_begin27
	.word	.Ltmp345-.Ltmp342
	.word	.Ltmp346-.Lfunc_begin27
	.byte	0
	.word	.Ltmp347-.Lfunc_begin27
	.word	.Ltmp348-.Ltmp347
	.word	.Ltmp349-.Lfunc_begin27
	.byte	0
	.word	.Ltmp353-.Lfunc_begin27
	.word	.Ltmp354-.Ltmp353
	.word	.Ltmp355-.Lfunc_begin27
	.byte	0
	.word	.Ltmp358-.Lfunc_begin27
	.word	.Ltmp359-.Ltmp358
	.word	.Ltmp360-.Lfunc_begin27
	.byte	0
	.word	.Ltmp364-.Lfunc_begin27
	.word	.Ltmp365-.Ltmp364
	.word	.Ltmp366-.Lfunc_begin27
	.byte	0
	.word	.Ltmp369-.Lfunc_begin27
	.word	.Ltmp370-.Ltmp369
	.word	.Ltmp371-.Lfunc_begin27
	.byte	0
	.word	.Ltmp370-.Lfunc_begin27
	.word	.Ltmp350-.Ltmp370
	.word	0
	.byte	0
	.word	.Ltmp350-.Lfunc_begin27
	.word	.Ltmp351-.Ltmp350
	.word	.Ltmp352-.Lfunc_begin27
	.byte	0
	.word	.Ltmp356-.Lfunc_begin27
	.word	.Ltmp362-.Ltmp356
	.word	.Ltmp363-.Lfunc_begin27
	.byte	0
	.word	.Ltmp367-.Lfunc_begin27
	.word	.Ltmp373-.Ltmp367
	.word	.Ltmp374-.Lfunc_begin27
	.byte	0
	.word	.Ltmp373-.Lfunc_begin27
	.word	.Lfunc_end145-.Ltmp373
	.word	0
	.byte	0
.Lcst_end27:
	.p2align	2, 0x0

	.section	".text._ZN4core3ptr102drop_in_place$LT$alloc..sync..ArcInner$LT$tokio..runtime..scheduler..multi_thread..park..Inner$GT$$GT$17h977a9c8bbe466f91E","ax",@progbits
	.p2align	1
	.type	_ZN4core3ptr102drop_in_place$LT$alloc..sync..ArcInner$LT$tokio..runtime..scheduler..multi_thread..park..Inner$GT$$GT$17h977a9c8bbe466f91E,@function
_ZN4core3ptr102drop_in_place$LT$alloc..sync..ArcInner$LT$tokio..runtime..scheduler..multi_thread..park..Inner$GT$$GT$17h977a9c8bbe466f91E:
	.cfi_startproc
	li	a1, 1
	neg	a2, a1
	amoadd.d.rl	a2, a2, (a0)
	bne	a2, a1, .LBB146_2
	fence	r, rw
	tail	_ZN5alloc4sync12Arc$LT$T$GT$9drop_slow17hc7d9fb230d4ab83fE
.LBB146_2:
	ret
.Lfunc_end146:
	.size	_ZN4core3ptr102drop_in_place$LT$alloc..sync..ArcInner$LT$tokio..runtime..scheduler..multi_thread..park..Inner$GT$$GT$17h977a9c8bbe466f91E, .Lfunc_end146-_ZN4core3ptr102drop_in_place$LT$alloc..sync..ArcInner$LT$tokio..runtime..scheduler..multi_thread..park..Inner$GT$$GT$17h977a9c8bbe466f91E
	.cfi_endproc

	.section	".text._ZN4core3ptr102drop_in_place$LT$core..cell..Ref$LT$core..option..Option$LT$tokio..runtime..handle..Handle$GT$$GT$$GT$17h505afe085708b08cE","ax",@progbits
	.p2align	1
	.type	_ZN4core3ptr102drop_in_place$LT$core..cell..Ref$LT$core..option..Option$LT$tokio..runtime..handle..Handle$GT$$GT$$GT$17h505afe085708b08cE,@function
_ZN4core3ptr102drop_in_place$LT$core..cell..Ref$LT$core..option..Option$LT$tokio..runtime..handle..Handle$GT$$GT$$GT$17h505afe085708b08cE:
	.cfi_startproc
	ld	a1, 0(a0)
	addi	a1, a1, -1
	sd	a1, 0(a0)
	ret
.Lfunc_end147:
	.size	_ZN4core3ptr102drop_in_place$LT$core..cell..Ref$LT$core..option..Option$LT$tokio..runtime..handle..Handle$GT$$GT$$GT$17h505afe085708b08cE, .Lfunc_end147-_ZN4core3ptr102drop_in_place$LT$core..cell..Ref$LT$core..option..Option$LT$tokio..runtime..handle..Handle$GT$$GT$$GT$17h505afe085708b08cE
	.cfi_endproc

	.section	".text._ZN4core3ptr102drop_in_place$LT$core..option..Option$LT$tokio..runtime..scheduler..multi_thread..park..Parker$GT$$GT$17h89223fea9e31dc63E","ax",@progbits
	.p2align	1
	.type	_ZN4core3ptr102drop_in_place$LT$core..option..Option$LT$tokio..runtime..scheduler..multi_thread..park..Parker$GT$$GT$17h89223fea9e31dc63E,@function
_ZN4core3ptr102drop_in_place$LT$core..option..Option$LT$tokio..runtime..scheduler..multi_thread..park..Parker$GT$$GT$17h89223fea9e31dc63E:
	.cfi_startproc
	beqz	a0, .LBB148_3
	li	a1, 1
	neg	a2, a1
	amoadd.d.rl	a2, a2, (a0)
	bne	a2, a1, .LBB148_3
	fence	r, rw
	tail	_ZN5alloc4sync12Arc$LT$T$GT$9drop_slow17he092effc2c71ed9bE
.LBB148_3:
	ret
.Lfunc_end148:
	.size	_ZN4core3ptr102drop_in_place$LT$core..option..Option$LT$tokio..runtime..scheduler..multi_thread..park..Parker$GT$$GT$17h89223fea9e31dc63E, .Lfunc_end148-_ZN4core3ptr102drop_in_place$LT$core..option..Option$LT$tokio..runtime..scheduler..multi_thread..park..Parker$GT$$GT$17h89223fea9e31dc63E
	.cfi_endproc

	.section	".text._ZN4core3ptr102drop_in_place$LT$tokio..io..poll_evented..PollEvented$LT$mio..net..uds..datagram..UnixDatagram$GT$$GT$17h11401b6ab23de038E","ax",@progbits
	.p2align	1
	.type	_ZN4core3ptr102drop_in_place$LT$tokio..io..poll_evented..PollEvented$LT$mio..net..uds..datagram..UnixDatagram$GT$$GT$17h11401b6ab23de038E,@function
_ZN4core3ptr102drop_in_place$LT$tokio..io..poll_evented..PollEvented$LT$mio..net..uds..datagram..UnixDatagram$GT$$GT$17h11401b6ab23de038E:
.Lfunc_begin28:
	.cfi_startproc
	.cfi_personality 155, DW.ref.rust_eh_personality
	.cfi_lsda 27, .Lexception28
	addi	sp, sp, -112
	.cfi_def_cfa_offset 112
	sd	ra, 104(sp)
	sd	s0, 96(sp)
	sd	s1, 88(sp)
	sd	s2, 80(sp)
	sd	s3, 72(sp)
	sd	s4, 64(sp)
	.cfi_offset ra, -8
	.cfi_offset s0, -16
	.cfi_offset s1, -24
	.cfi_offset s2, -32
	.cfi_offset s3, -40
	.cfi_offset s4, -48
	mv	s0, a0
	lw	a0, 16(a0)
	li	a1, -1
	sw	a1, 16(s0)
	beq	a0, a1, .LBB149_12
.Lpcrel_hi375:
	auipc	a1, %got_pcrel_hi(_ZN3log20MAX_LOG_LEVEL_FILTER17ha50fa5c2a42f10feE)
	ld	a1, %pcrel_lo(.Lpcrel_hi375)(a1)
	sw	a0, 12(sp)
	ld	s1, 8(s0)
	ld	a0, 0(a1)
	li	a1, 5
	addi	s3, s0, 16
	bltu	a0, a1, .LBB149_3
.Lpcrel_hi376:
	auipc	a0, %pcrel_hi(.L__unnamed_184)
	addi	a0, a0, %pcrel_lo(.Lpcrel_hi376)
	sd	a0, 32(sp)
	li	a0, 1
	sd	a0, 40(sp)
	sd	zero, 16(sp)
.Lpcrel_hi377:
	auipc	a0, %pcrel_hi(.L__unnamed_15)
	addi	a0, a0, %pcrel_lo(.Lpcrel_hi377)
	sd	a0, 48(sp)
	sd	zero, 56(sp)
.Ltmp375:
.Lpcrel_hi378:
	auipc	a0, %pcrel_hi(.L__unnamed_185)
	addi	a2, a0, %pcrel_lo(.Lpcrel_hi378)
	addi	a0, sp, 16
	li	a1, 5
	li	a3, 0
	call	_ZN3log17__private_api_log17h12dfc1fab8fe9ef8E@plt
.Ltmp376:
.LBB149_3:
	addi	a1, s1, 192
.Ltmp377:
	addi	a0, sp, 12
	call	_ZN84_$LT$mio..net..uds..datagram..UnixDatagram$u20$as$u20$mio..event..source..Source$GT$10deregister17h5689224406bc7cf4E@plt
.Ltmp378:
	mv	s1, a0
	seqz	a0, a0
	andi	a1, s1, 3
	addi	a1, a1, -1
	snez	a1, a1
	or	a0, a0, a1
	bnez	a0, .LBB149_9
	ld	a1, 7(s1)
	ld	a0, -1(s1)
	ld	a1, 0(a1)
	addi	s4, s1, -1
.Ltmp380:
	jalr	a1
.Ltmp381:
	ld	a0, 7(s1)
	ld	a1, 8(a0)
	beqz	a1, .LBB149_8
	ld	a2, 16(a0)
	ld	a0, 0(s4)
	call	__rust_dealloc@plt
.LBB149_8:
	li	a1, 24
	li	a2, 8
	mv	a0, s4
	call	__rust_dealloc@plt
.LBB149_9:
	lw	a0, 12(sp)
.Ltmp386:
	call	close@plt
.Ltmp387:
	lw	a0, 0(s3)
	li	a1, -1
	beq	a0, a1, .LBB149_12
.Ltmp391:
	call	close@plt
.Ltmp392:
.LBB149_12:
.Ltmp397:
	mv	a0, s0
	call	_ZN88_$LT$tokio..runtime..io..registration..Registration$u20$as$u20$core..ops..drop..Drop$GT$4drop17h97164d79f48a56ddE@plt
.Ltmp398:
	ld	a0, 8(s0)
	li	a1, 1
	neg	a2, a1
	amoadd.d.rl	a2, a2, (a0)
	bne	a2, a1, .LBB149_15
	fence	r, rw
.Ltmp402:
	call	_ZN5alloc4sync12Arc$LT$T$GT$9drop_slow17hdce2af5fdf43e1c8E
.Ltmp403:
.LBB149_15:
	ld	a0, 0(s0)
	call	_ZN4core3ptr96drop_in_place$LT$tokio..util..slab..Ref$LT$tokio..runtime..io..scheduled_io..ScheduledIo$GT$$GT$17h46905a248dbb292cE
	ld	ra, 104(sp)
	ld	s0, 96(sp)
	ld	s1, 88(sp)
	ld	s2, 80(sp)
	ld	s3, 72(sp)
	ld	s4, 64(sp)
	addi	sp, sp, 112
	ret
.LBB149_16:
.Ltmp382:
	ld	a2, 7(s1)
	ld	a3, -1(s1)
	ld	a1, 8(a2)
	ld	a2, 16(a2)
	mv	s2, a0
	mv	a0, a3
	call	_ZN5alloc5alloc8box_free17hab3460fb52d5dd94E
	mv	a0, s4
	call	_ZN5alloc5alloc8box_free17h07113bd725719d0aE
	j	.LBB149_21
.LBB149_17:
.Ltmp393:
	mv	s2, a0
	j	.LBB149_23
.LBB149_18:
.Ltmp404:
	mv	s2, a0
	j	.LBB149_26
.LBB149_19:
.Ltmp388:
	mv	s2, a0
	j	.LBB149_22
.LBB149_20:
.Ltmp379:
	mv	s2, a0
.LBB149_21:
	lw	a0, 12(sp)
.Ltmp383:
	call	_ZN4core3ptr38drop_in_place$LT$mio..waker..Waker$GT$17hc2b62f633f28b0c1E
.Ltmp384:
.LBB149_22:
.Ltmp389:
	mv	a0, s3
	call	_ZN4core3ptr73drop_in_place$LT$core..option..Option$LT$mio..net..udp..UdpSocket$GT$$GT$17h3c2df9b82f2681d7E
.Ltmp390:
.LBB149_23:
.Ltmp394:
	mv	a0, s0
	call	_ZN4core3ptr67drop_in_place$LT$tokio..runtime..io..registration..Registration$GT$17h541dbca9c631d7acE
.Ltmp395:
	j	.LBB149_27
.LBB149_24:
.Ltmp385:
	call	_ZN4core9panicking19panic_cannot_unwind17h7b6652c0f2f24b81E@plt
	unimp	
.LBB149_25:
.Ltmp399:
	mv	s2, a0
	addi	a0, s0, 8
.Ltmp400:
	call	_ZN4core3ptr47drop_in_place$LT$tokio..runtime..io..Handle$GT$17ha751a8b212706c8aE
.Ltmp401:
.LBB149_26:
	ld	a0, 0(s0)
.Ltmp405:
	call	_ZN4core3ptr96drop_in_place$LT$tokio..util..slab..Ref$LT$tokio..runtime..io..scheduled_io..ScheduledIo$GT$$GT$17h46905a248dbb292cE
.Ltmp406:
.LBB149_27:
	mv	a0, s2
	call	_Unwind_Resume@plt
	unimp	
.LBB149_28:
.Ltmp407:
	call	_ZN4core9panicking19panic_cannot_unwind17h7b6652c0f2f24b81E@plt
	unimp	
.LBB149_29:
.Ltmp396:
